                                                                ; -----------------------------------------------------------
                                                                ; Small C Compiler for TRDOS 386 (v2.0.9 and later)
                                                                ; Erdogan Tan - 2024
                                                                ; Beginning: 05/09/2024
                                                                ; Last Update: 21/03/2026
                                                                ; -----------------------------------------------------------
                                                                ; Derived from 'scc.asm' file of KolibriOS SCC source code
                                                                ; 2024
                                                                
                                                                ;B+ System header
                                                                use32
                                                                org 0x0
00000000: E9 8A 10 00 00                                          jmp START	; TRDOS 386 PRG file doesn't contain header
                                                                
00000005: 00 00 00 00                                             dd  0
                                                                
                                                                ;B+ Include C files
                                                                  ; Compiler tools
                                                                  include "INTRINS.ASM"
                                                                ; -----------------------------------------------------------
                                                                ; Small C Compiler for TRDOS 386 (v2.0.9 and later)
                                                                ; Erdogan Tan - 2024
                                                                ; Beginning: 05/09/2024
                                                                ; Last Update: 26/09/2024
                                                                ; -----------------------------------------------------------
                                                                ; Derived from 'intrins.asm' file of KolibriOS SCC source code
                                                                ; 2024
                                                                
                                                                ;
                                                                ; Small-C Run Time Library for Win NT
                                                                ;
                                                                ; Nasm version  17/Nov/98  H T Walheim
                                                                ; Revised:	20/Nov/98  HTW [Bugs in switch]
                                                                ;
                                                                
                                                                _CCARGC:
                                                                	;B+ Ellipses arguments ( ,...)
                                                                	;cl - argument count
                                                                
00000009: 31 C0                                                 	xor	eax,eax
0000000B: 0F B6 C1                                              	movzx	eax,cl  ; No sign-extension
0000000E: C3                                                    	retn
                                                                	;E:.
                                                                
                                                                	;B+ Compare
                                                                
                                                                __ult:
                                                                	;B+ ???
0000000F: 39 D8                                                   	cmp	eax,ebx
00000011: 77 46                                                 	ja	short true
00000013: 31 C0                                                 	xor	eax,eax
00000015: C3                                                    	retn
                                                                	;E:.
                                                                
                                                                __ugt:
                                                                	;B+ ???
00000016: 39 D8                                                 	cmp	eax,ebx
00000018: 72 3F                                                 	jb	short true
0000001A: 31 C0                                                 	xor	eax,eax
0000001C: C3                                                    	retn
                                                                	;E:.
                                                                
                                                                __ule:
                                                                	;B+ ???
0000001D: 39 D8                                                 	cmp	eax,ebx
0000001F: 73 38                                                 	jae	short true
00000021: 31 C0                                                 	xor	eax,eax
00000023: C3                                                    	retn
                                                                	;E:.
                                                                
                                                                __uge:
                                                                	;B+ ???
00000024: 39 D8                                                 	cmp	eax,ebx
00000026: 76 31                                                 	jbe	short true
00000028: 31 C0                                                 	xor	eax,eax
0000002A: C3                                                    	retn
                                                                	;E:.
                                                                
                                                                __eq:
                                                                	;B+ ???
0000002B: 39 D8                                                 	cmp	eax,ebx
0000002D: 74 2A                                                 	je	short true
0000002F: 31 C0                                                 	xor	eax,eax
00000031: C3                                                    	retn
                                                                	;E:.
                                                                
                                                                __ne:
                                                                	;B+ ???
00000032: 39 D8                                                 	cmp	eax,ebx
00000034: 75 23                                                 	jne	short true
00000036: 31 C0                                                 	xor	eax,eax
00000038: C3                                                    	retn
                                                                	;E:.
                                                                
                                                                __lt:
                                                                	;B+ ???
00000039: 39 D8                                                 	cmp	eax,ebx
0000003B: 7F 1C                                                 	jg	short true
0000003D: 31 C0                                                 	xor	eax,eax
0000003F: C3                                                    	retn
                                                                	;E:.
                                                                
                                                                __gt:
                                                                	;B+ ???
00000040: 39 D8                                                 	cmp	eax,ebx
00000042: 7C 15                                                 	jl	short true
00000044: 31 C0                                                 	xor	eax,eax
00000046: C3                                                    	retn
                                                                	;E:.
                                                                
                                                                __le:
                                                                	;B+ ???
00000047: 39 D8                                                 	cmp	eax,ebx
00000049: 7D 0E                                                 	jge	short true
0000004B: 31 C0                                                 	xor	eax,eax
0000004D: C3                                                    	retn
                                                                	;E:.
                                                                
                                                                __ge:
                                                                	;B+ ???
0000004E: 39 D8                                                 	cmp	eax,ebx
00000050: 7E 07                                                 	jle	short true
00000052: 31 C0                                                 	xor	eax,eax
00000054: C3                                                    	retn
                                                                	;E:.
                                                                
                                                                ;E:.
                                                                
                                                                __lneg:
                                                                	;B+ Logical Negate of Primary
00000055: 09 C0                                                 	or	eax,eax
00000057: 75 06                                                 	jnz	short false
                                                                true:
00000059: B8 01 00 00 00                                        	mov	eax,1
0000005E: C3                                                    	retn
                                                                
                                                                false:
0000005F: 31 C0                                                 	xor	eax,eax
00000061: C3                                                    	retn
                                                                	;E:.
                                                                
                                                                __switch:
                                                                	;B+ Execute "switch" statement
                                                                
                                                                	;eax   - switch value
                                                                	;[esp] - pointer to switch table
                                                                	;   dd addr1,value1
                                                                	;         ...
                                                                	;   dd 0
                                                                	;   [jmp default]
                                                                	;   continuation
                                                                	;
                                                                	; Revised: 20/Nov/98 [JECXZ needed]
                                                                
00000062: 5B                                                    	pop	ebx
00000063: EB 03                                                 	jmp	short skip
                                                                back:
00000065: 83 C3 08                                              	add	ebx,8	    ;next case-pair
                                                                skip:
00000068: 8B 0B                                                 	mov	ecx,[ebx]   ;case-label location (adress)
0000006A: E3 07                                                 	jecxz	default
0000006C: 3B 43 04                                              	cmp	eax,[ebx+4] ;test case-value
0000006F: 75 F4                                                 	jnz	short back
00000071: FF E1                                                 	jmp	ecx	    ;match -- jump to case
                                                                default:
00000073: 83 C3 04                                              	add	ebx,4
00000076: FF E3                                                 	jmp	ebx	    ;jump to default/continuation
                                                                ;E:.
                                                                
                                                                
                                                                  ; C Library ("stdio.asm")
                                                                  include "LIBSTD.ASM"
                                                                ; -----------------------------------------------------------
                                                                ; Small C Compiler for TRDOS 386 (v2.0.9 and later)
                                                                ; Erdogan Tan - 2024
                                                                ; Beginning: 05/09/2024
                                                                ; Last Update: 07/04/2026
                                                                ; -----------------------------------------------------------
                                                                ; Derived from 'libstd.asm' file of KolibriOS SCC source code
                                                                ; 2024
                                                                
                                                                ;NOTE: The assembly source code will be more optimized later.
                                                                ;  For now (current version), semi-optimized source code
                                                                ;  will be preserved for comparison with existing C code.
                                                                ;Erdogan Tan - 11/09/2024
                                                                
                                                                ; TRDOS 386 v2 modification
                                                                ; Write string to standard output.
                                                                ;
                                                                ;puts(string) char *string;
                                                                ;{while(*string)
                                                                ;     OS_putc(*string++);
                                                                ; OS_putc('\n');
                                                                
                                                                _puts:
00000078: 55                                                    	PUSH	EBP
00000079: 89 E5                                                 	MOV	EBP,ESP
                                                                	; 04/04/2026 (CRLF)
0000007B: 31 C0                                                 	XOR	EAX,EAX		; char *c;
0000007D: 50                                                    	PUSH	EAX 		; c=NULL;
                                                                _puts_1:	; while
0000007E: 8D 5D 08                                              	LEA	EBX,[EBP+8]	; (*string)
00000081: 8B 13                                                 	MOV	EDX,[EBX] 	; string's itself
                                                                	;MOVSX	EAX,BYTE [EDX]	; char in string
00000083: 8A 02                                                 	MOV	AL,[EDX]
00000085: 09 C0                                                 	OR	EAX,EAX
00000087: 74 24                                                 	JZ	short _puts_2
00000089: FF 03                                                 	INC	DWORD [EBX]	; (*string++);
0000008B: 8D 55 FC                                              	LEA	EDX,[EBP-4]
0000008E: 80 3A 0D                                              	CMP	BYTE [EDX],13	; CR ?
00000091: 74 11                                                 	JE	short _puts_3	; yes, skip CRLF
00000093: 88 02                                                 	MOV	[EDX],AL	; set is as previous
00000095: 3C 0A                                                 	CMP	AL,10		; LF ?
00000097: 75 0B                                                 	JNE	short _puts_3	; no
00000099: B0 0D                                                 	MOV	AL,13		; yes, put CR before LF
0000009B: 50                                                    	PUSH	EAX
0000009C: E8 42 0E 00 00                                        	CALL	_OS_putc
000000A1: 58                                                    	POP	EAX
000000A2: B0 0A                                                 	MOV	AL,10		
                                                                _puts_3:
000000A4: 50                                                    	PUSH	EAX
                                                                	;MOV	CL,1 ; 1 argument
000000A5: E8 39 0E 00 00                                        	CALL	_OS_putc
                                                                	;ADD	ESP,4
000000AA: 58                                                    	POP	EAX
000000AB: EB D1                                                 	JMP	short _puts_1
                                                                _puts_2:
000000AD: 89 EC                                                 	MOV	ESP,EBP	; 04/04/2026
000000AF: 5D                                                    	POP	EBP
000000B0: C3                                                    	RETN
                                                                
                                                                ;/* TRDOS 386 v2 modification */
                                                                ;putc(c) char *c;
                                                                ;{
                                                                ; OS_putc(*c);
                                                                ;}
                                                                ;
                                                                ;getc()
                                                                ;{
                                                                ;return(OS_getc());
                                                                ;}
                                                                ;
                                                                ;_putc:		; putchar (to stdout)
                                                                ;	PUSH	EBP
                                                                ;	MOV	EBP,ESP
                                                                ;	LEA	EAX,[EBP+8]
                                                                ;	MOV	EBX,[EAX]
                                                                ;	MOVSX	EAX,BYTE [EBX]
                                                                ;	PUSH	EAX
                                                                ;	;MOV	CL,1
                                                                ;	CALL	_OS_putc
                                                                ;	ADD	ESP,4
                                                                ;	POP	EBP
                                                                ;	RETN
                                                                ;
                                                                ;_getc:		; getchar (from stdin)
                                                                ;	;PUSH	EBP
                                                                ;	;MOV	EBP,ESP
                                                                ;	;XOR	CL,CL
                                                                ;	CALL	_OS_getc
                                                                ;	;POP	EBP
                                                                ;	;RETN
                                                                ; reverse string in place
                                                                
                                                                _reverse:			; reverse(s) char *s;
000000B1: 55                                                    	PUSH	EBP
000000B2: 89 E5                                                 	MOV	EBP,ESP
000000B4: 83 C4 F8                                              	ADD	ESP,-8		; char *j; int c;
000000B7: 8D 5D 08                                              	LEA	EBX,[EBP+8]	; j=s+strlen(s)-1;
000000BA: 8B 03                                                 	MOV	EAX,[EBX]
000000BC: 50                                                    	PUSH	EAX ; *
000000BD: 50                                                    	PUSH	EAX
                                                                	;MOV	CL,1
000000BE: E8 6A 00 00 00                                        	CALL	_strlen
                                                                	;ADD	ESP,4
000000C3: 5B                                                    	POP	EBX
000000C4: 5B                                                    	POP	EBX ; *
000000C5: 01 D8                                                 	ADD	EAX,EBX
                                                                	;SUB	EAX,1
000000C7: 48                                                    	DEC	EAX
000000C8: 8D 5D FC                                              	LEA	EBX,[EBP-4]
000000CB: 89 03                                                 	MOV	[EBX],EAX
                                                                _lib_3:				; while(s<j)
000000CD: 8D 55 08                                              	LEA	EDX,[EBP+8]
000000D0: 8B 1A                                                 	MOV	EBX,[EDX]
000000D2: 8D 4D FC                                              	LEA	ECX,[EBP-4]
000000D5: 8B 01                                                 	MOV	EAX,[ECX]
000000D7: E8 33 FF FF FF                                        	CALL	__ult
000000DC: 09 C0                                                 	OR	EAX,EAX
000000DE: 75 04                                                 	JNE	short _lib_5
                                                                _lib_4:
000000E0: 89 EC                                                 	MOV	ESP,EBP
000000E2: 5D                                                    	POP	EBP
000000E3: C3                                                    	RETN
                                                                _lib_5:
000000E4: 8D 4D F8                                              	LEA	ECX,[EBP-8]	; c=*s;
                                                                	;LEA	EDX,[EBP+8]
                                                                	;MOV	EBX,[EDX]
000000E7: 0F BE 03                                              	MOVSX	EAX,BYTE [EBX]
000000EA: 89 01                                                 	MOV	[ECX],EAX
                                                                	;LEA	EDX,[EBP+8]	; *s++ =*j;
                                                                	;MOV	EBX,[EDX]
                                                                	;INC	EBX
                                                                	;MOV	[EDX],EBX
                                                                	;DEC	EBX
000000EC: FF 02                                                 	INC	DWORD [EDX]
000000EE: 8D 45 FC                                              	LEA	EAX,[EBP-4]
000000F1: 8B 10                                                 	MOV	EDX,[EAX]
                                                                	;DEC	EDX
                                                                	;MOV	[EAX],EDX
                                                                	;INC	EDX
                                                                	;PUSH	EDX
000000F3: FF 08                                                 	DEC	DWORD [EAX]	; **j-- =c;
000000F5: 0F BE 02                                              	MOVSX	EAX,BYTE [EDX]	; 04/04/2026
000000F8: 88 03                                                 	MOV	[EBX],AL
                                                                	;LEA	ECX,[EBP-8]
000000FA: 8B 01                                                 	MOV	EAX,[ECX]
                                                                	;POP	EDX
000000FC: 88 02                                                 	MOV	[EDX],AL
000000FE: EB CD                                                 	JMP	short _lib_3
                                                                
                                                                ; copy string t to s
                                                                
                                                                _strcpy:			; strcpy(s,t) char *s,*t;
00000100: 55                                                    	PUSH	EBP
00000101: 89 E5                                                 	MOV	EBP,ESP
00000103: 83 C4 FC                                              	ADD	ESP,-4		; char *d;
00000106: 8D 5D 0C                                              	LEA	EBX,[EBP+12]
00000109: 8B 03                                                 	MOV	EAX,[EBX]	; char *s
0000010B: 8D 55 FC                                              	LEA	EDX,[EBP-4]
0000010E: 89 02                                                 	MOV	[EDX],EAX	; d=s;
                                                                _strcpy_1:			; while(*s++ =*t++);
                                                                	;LEA	EBX,[EBP+12] 	; *s
00000110: 8B 0B                                                 	MOV	ECX,[EBX]
                                                                	;INC	ECX
                                                                	;MOV	[EBX],ECX
                                                                	;DEC	ECX
00000112: FF 03                                                 	INC	DWORD [EBX] 	; *s++
00000114: 8D 45 08                                              	LEA	EAX,[EBP+8] 	; *t
00000117: 8B 10                                                 	MOV	EDX,[EAX]
00000119: FF 00                                                 	INC	DWORD [EAX] 	; *t++
0000011B: 0F BE 02                                              	MOVSX	EAX,BYTE [EDX]
0000011E: 88 01                                                 	MOV	[ECX],AL	; *s++ =*t++
                                                                	; ebx = [EBP+12]
00000120: 09 C0                                                 	OR	EAX,EAX
00000122: 75 EC                                                 	JNZ	short _strcpy_1
00000124: 8D 5D FC                                              	LEA	EBX,[EBP-4] 	; pointer to d
00000127: 8B 03                                                 	MOV	EAX,[EBX] 	; return (d);
00000129: 89 EC                                                 	MOV	ESP,EBP
0000012B: 5D                                                    	POP	EBP
0000012C: C3                                                    	RETN
                                                                
                                                                ; return length of string s
                                                                
                                                                _strlen:			; strlen(s)
0000012D: 55                                                    	PUSH	EBP
0000012E: 89 E5                                                 	MOV	EBP,ESP
00000130: 83 C4 FC                                              	ADD	ESP,-4		; char *ptr;
00000133: 8D 55 08                                              	LEA	EDX,[EBP+8]
00000136: 8B 1A                                                 	MOV	EBX,[EDX]
00000138: 8D 4D FC                                              	LEA	ECX,[EBP-4]
0000013B: 89 19                                                 	MOV	[ECX],EBX	; ptr=s;
                                                                _strlen_1:
                                                                	;LEA	ECX,[EBP-4]	; while(*ptr)
                                                                	;MOV	EBX,[ECX]
0000013D: 0F BE 03                                              	MOVSX	EAX,BYTE [EBX]
00000140: 09 C0                                                 	OR	EAX,EAX
00000142: 74 05                                                 	JZ	short _strlen_2
                                                                ;_lib_13:
                                                                	;LEA	ECX,[EBP-4]
                                                                	;MOV	EBX,[ECX]
00000144: 43                                                    	INC	EBX
00000145: 89 19                                                 	MOV	[ECX],EBX	; ++ptr;
00000147: EB F4                                                 	JMP	short _strlen_1
                                                                _strlen_2:
                                                                	;LEA	EDX,[EBP+8]
00000149: 8B 0A                                                 	MOV	ECX,[EDX]	; s
0000014B: 8D 5D FC                                              	LEA	EBX,[EBP-4]	; ptr
0000014E: 8B 03                                                 	MOV	EAX,[EBX]
00000150: 29 C8                                                 	SUB	EAX,ECX		; return (ptr-s);
00000152: 89 EC                                                 	MOV	ESP,EBP
00000154: 5D                                                    	POP	EBP
00000155: C3                                                    	RETN
                                                                
                                                                ; return upper-case of c if it is lower-case, else c
                                                                
                                                                _toupper:			; toupper(c)
00000156: 55                                                    	PUSH	EBP
00000157: 89 E5                                                 	MOV	EBP,ESP
00000159: 8D 45 08                                              	LEA	EAX,[EBP+8]	; if(c<='z' && c>='a')
0000015C: 8B 18                                                 	MOV	EBX,[EAX]	; int c;
0000015E: B8 7A 00 00 00                                        	MOV	EAX,122		; 'z'
00000163: E8 DF FE FF FF                                        	CALL	__le
00000168: 09 C0                                                 	OR	EAX,EAX
                                                                	;;JZ	short _lib_16
                                                                	;JZ	short _lib_15
0000016A: 74 11                                                 	JZ	short _toupper_ok ; condition 1 = false
                                                                ;_lib_18:
                                                                	;LEA	EAX,[EBP+8]
                                                                	;MOV	EBX,[EAX]
0000016C: B8 61 00 00 00                                        	MOV	EAX,97		; 'a'
00000171: E8 D8 FE FF FF                                        	CALL	__ge
00000176: 09 C0                                                 	OR	EAX,EAX
                                                                	;;JZ	short _lib_16
                                                                	;JZ	short _lib_15
00000178: 74 03                                                 	JZ	short _toupper_ok ; condition 2 = false
                                                                ;_lib_19:
                                                                	;MOV	EAX,1
                                                                	; eax = 1
                                                                	;;JMP	short _lib_17
                                                                	;JMP	short _lib_20
                                                                ;_lib_16:
                                                                	;XOR	EAX,EAX
                                                                ;_lib_17:
                                                                	;OR	EAX,EAX
                                                                	;JZ	short _lib_15
                                                                ;_lib_20:
                                                                	;;LEA	EAX,[EBP+8]	; condition 1 & 2 = true
                                                                	;;MOV	EBX,[EAX]	; int c
                                                                	;MOV	EAX,32
                                                                	;SUB	EBX,EAX		; return (c-32);
0000017A: 83 EB 20                                              	SUB	EBX,32
                                                                _toupper_ok:	; return (c);
0000017D: 93                                                    	XCHG	EAX,EBX
0000017E: 5D                                                    	POP	EBP
0000017F: C3                                                    	RETN
                                                                
                                                                ;_lib_15:
                                                                ;_toupper_ok:
                                                                	;;LEA	EBX,[EBP+8]
                                                                	;;MOV	EAX,[EBX]
                                                                	;; ebx = int c
                                                                	;XCHG	EAX,EBX		; return (c);
                                                                	;POP	EBP
                                                                	;RETN
                                                                
                                                                ; atoi(s) - convert s to integer.
                                                                
                                                                _atoi:				; atoi(s) char *s;
00000180: 55                                                    	PUSH	EBP
00000181: 89 E5                                                 	MOV	EBP,ESP
00000183: 83 C4 F8                                              	ADD	ESP,-8		; int sign,n;
                                                                ;_lib_22:
00000186: 8D 45 08                                              	LEA	EAX,[EBP+8]	; while(isspace(*s)) ++s;
00000189: 8B 18                                                 	MOV	EBX,[EAX]
                                                                _lib_22:
0000018B: 0F BE 03                                              	MOVSX	EAX,BYTE [EBX]
0000018E: 50                                                    	PUSH	EAX
                                                                	;MOV	CL,1
0000018F: E8 A4 08 00 00                                        	CALL	_isspace
00000194: 83 C4 04                                              	ADD	ESP,4
00000197: 09 C0                                                 	OR	EAX,EAX
00000199: 74 07                                                 	JZ	short _lib_23
                                                                _lib_24:
0000019B: 8D 5D 08                                              	LEA	EBX,[EBP+8]
0000019E: FF 03                                                 	INC	DWORD [EBX]
000001A0: EB E9                                                 	JMP	short _lib_22
                                                                _lib_23:
000001A2: 8D 5D FC                                              	LEA	EBX,[EBP-4]	; sign = 1;
000001A5: B8 01 00 00 00                                        	MOV	EAX,1
000001AA: 89 03                                                 	MOV	[EBX],EAX
000001AC: 8D 45 08                                              	LEA	EAX,[EBP+8]	; switch(*s)
000001AF: 8B 18                                                 	MOV	EBX,[EAX]
000001B1: 0F BE 03                                              	MOVSX	EAX,BYTE [EBX]
000001B4: EB 11                                                 	JMP	short _lib_27
                                                                _lib_28:	
000001B6: 8D 5D FC                                              	LEA	EBX,[EBP-4]	; case '-': sign=-1;
000001B9: B8 FF FF FF FF                                        	MOV	EAX, -1
000001BE: 89 03                                                 	MOV	[EBX],EAX
                                                                _lib_29:	
000001C0: 8D 5D 08                                              	LEA	EBX,[EBP+8]	; case '+': ++s;
                                                                	;MOV	EAX,[EBX]
                                                                	;INC	EAX
                                                                	;MOV	[EBX],EAX
000001C3: FF 03                                                 	INC	DWORD [EBX]
000001C5: EB 19                                                 	JMP	short _lib_26
                                                                _lib_27:
000001C7: E8 96 FE FF FF                                        	CALL	__switch	; switch(*s) {
                                                                
000001CC: B6 01 00 00                                            DD _lib_28	; case '-':
000001D0: 2D 00 00 00                                            DD 45
000001D4: C0 01 00 00                                            DD _lib_29	; case '+':
000001D8: 2B 00 00 00                                            DD 43
000001DC: 00 00 00 00                                            DD 0
                                                                
                                                                _lib_26:
000001E0: 8D 5D F8                                              	LEA	EBX,[EBP-8]	; n=0;
000001E3: 31 C0                                                 	XOR	EAX,EAX
000001E5: 89 03                                                 	MOV	[EBX],EAX
                                                                _lib_30:
000001E7: 8D 45 08                                              	LEA	EAX,[EBP+8]	; while(isdigit(*s))
000001EA: 8B 18                                                 	MOV	EBX,[EAX]
000001EC: 0F BE 03                                              	MOVSX	EAX,BYTE [EBX]
000001EF: 50                                                    	PUSH	EAX
                                                                	;MOV	CL,1
000001F0: E8 BF 07 00 00                                        	CALL	_isdigit
000001F5: 83 C4 04                                              	ADD	ESP,4
000001F8: 09 C0                                                 	OR	EAX,EAX
000001FA: 74 1F                                                 	JZ	short _lib_31
                                                                _lib_32:
000001FC: 8D 5D F8                                              	LEA	EBX,[EBP-8]	; n=10*n+*s++ -'0';
000001FF: 8B 03                                                 	MOV	EAX,[EBX]
00000201: B9 0A 00 00 00                                        	MOV	ECX,10
00000206: F7 E9                                                 	IMUL	ECX
                                                                	; eax = 10*n
00000208: 8D 55 08                                              	LEA	EDX,[EBP+8]
0000020B: 8B 0A                                                 	MOV	ECX,[EDX]
0000020D: FF 02                                                 	INC	DWORD [EDX]
0000020F: 0F BE 11                                              	MOVSX	EDX,BYTE [ECX]
00000212: 01 D0                                                 	ADD	EAX,EDX
00000214: 83 E8 30                                              	SUB	EAX,48		; '0'
00000217: 89 03                                                 	MOV	[EBX],EAX
00000219: EB CC                                                 	JMP	short _lib_30
                                                                _lib_31:
0000021B: 8D 5D F8                                              	LEA	EBX,[EBP-8]	; return (sign*n);
0000021E: 8B 03                                                 	MOV	EAX,[EBX]	; n
00000220: 8D 5D FC                                              	LEA	EBX,[EBP-4]
00000223: 8B 0B                                                 	MOV	ECX,[EBX]	; sign
00000225: F7 E9                                                 	IMUL	ECX
00000227: 89 EC                                                 	MOV	ESP,EBP
00000229: 5D                                                    	POP	EBP
0000022A: C3                                                    	RETN
                                                                
                                                                ; atoib(s,b) - Convert s to "unsigned" integer in base b.
                                                                
                                                                _atoib:				; atoib(s,b)
0000022B: 55                                                    	PUSH	EBP
0000022C: 89 E5                                                 	MOV	EBP,ESP
0000022E: 83 C4 F8                                              	ADD	ESP,-8		; int n, digit;
00000231: 8D 5D FC                                              	LEA	EBX,[EBP-4] 	; n=0;
00000234: 31 C0                                                 	XOR	EAX,EAX
00000236: 89 03                                                 	MOV	[EBX],EAX
                                                                _lib_34:
00000238: 8D 45 0C                                              	LEA	EAX,[EBP+12]	; while(isspace(*s)) ++s;
0000023B: 8B 18                                                 	MOV	EBX,[EAX]
0000023D: 0F BE 03                                              	MOVSX	EAX, BYTE [EBX]
00000240: 50                                                    	PUSH	EAX
                                                                	;MOV	CL,1
00000241: E8 F2 07 00 00                                        	CALL	_isspace
00000246: 83 C4 04                                              	ADD	ESP,4
00000249: 09 C0                                                 	OR	EAX,EAX
0000024B: 74 07                                                 	JZ	short _lib_35
                                                                _lib_36:
0000024D: 8D 5D 0C                                              	LEA	EBX,[EBP+12]	; ++s;
00000250: FF 03                                                 	INC	DWORD [EBX]
00000252: EB E4                                                 	JMP	short _lib_34
                                                                _lib_35:
                                                                _lib_37:
00000254: 8D 55 F8                                              	LEA	EDX,[EBP-8]	; while((digit=(127 & *s++))>='0')
00000257: 8D 5D 0C                                              	LEA	EBX,[EBP+12]
0000025A: 8B 03                                                 	MOV	EAX,[EBX]
0000025C: FF 03                                                 	INC	DWORD [EBX]
0000025E: 0F BE 18                                              	MOVSX	EBX,BYTE [EAX]
00000261: 83 E3 7F                                              	AND	EBX,127
00000264: 89 1A                                                 	MOV	[EDX],EBX
00000266: B8 30 00 00 00                                        	MOV	EAX,48		; '0'
0000026B: E8 DE FD FF FF                                        	CALL	__ge
00000270: 09 C0                                                 	OR	EAX,EAX
00000272: 75 09                                                 	JNE	short _lib_39
                                                                _lib_47:
                                                                _lib_38:
00000274: 8D 5D FC                                              	LEA	EBX,[EBP-4]	; return (n);
00000277: 8B 03                                                 	MOV	EAX,[EBX]
00000279: 89 EC                                                 	MOV	ESP,EBP
0000027B: 5D                                                    	POP	EBP
0000027C: C3                                                    	RETN
                                                                _lib_39:
                                                                	;LEA	EDX,[EBP-8]	; if(digit>='a')
0000027D: 8B 1A                                                 	MOV	EBX,[EDX]
0000027F: B8 61 00 00 00                                        	MOV	EAX,97		; 'a'
00000284: E8 C5 FD FF FF                                        	CALL	__ge
00000289: 09 C0                                                 	OR	EAX,EAX
0000028B: 74 09                                                 	JE	short _lib_40
                                                                _lib_41:
                                                                	;LEA	EDX,[EBP-8]	; digit-=87;
0000028D: 8B 02                                                 	MOV	EAX,[EDX]
0000028F: 83 E8 57                                              	SUB	EAX,87		; a = 10, f = 15
00000292: 89 02                                                 	MOV	[EDX],EAX
00000294: EB 1E                                                 	JMP	short _lib_42
                                                                _lib_40:
                                                                	;LEA	EDX,[EBP-8]	; else if(digit>='A')
                                                                	;MOV	EBX,[EDX]
00000296: B8 41 00 00 00                                        	MOV	EAX,65		; 'A'
0000029B: E8 AE FD FF FF                                        	CALL	__ge
000002A0: 09 C0                                                 	OR	EAX,EAX
000002A2: 74 09                                                 	JE	short _lib_43
                                                                _lib_44:
                                                                	;LEA	EDX,[EBP-8]	; digit-=55;
000002A4: 8B 02                                                 	MOV	EAX,[EDX]
000002A6: 83 E8 37                                              	SUB	EAX,55		; A = 10, F = 15
000002A9: 89 02                                                 	MOV	[EDX],EAX
000002AB: EB 07                                                 	JMP	short _lib_45
                                                                _lib_43:
                                                                	;LEA	EDX,[EBP-8]	; else digit -= '0';
000002AD: 8B 02                                                 	MOV	EAX,[EDX]
000002AF: 83 E8 30                                              	SUB	EAX,48		; '0'
000002B2: 89 02                                                 	MOV	[EDX],EAX
                                                                _lib_45:
                                                                _lib_42:
                                                                	;LEA	EDX,[EBP-8]	; if(digit>=b) break;
                                                                	;MOV	EAX,[EDX]
000002B4: 50                                                    	PUSH	EAX		; digit
000002B5: 8D 5D 08                                              	LEA	EBX,[EBP+8]
000002B8: 8B 03                                                 	MOV	EAX,[EBX]	; b
000002BA: 5B                                                    	POP	EBX
000002BB: E8 8E FD FF FF                                        	CALL	__ge
000002C0: 09 C0                                                 	OR	EAX,EAX
000002C2: 75 B0                                                 	JNE	short _lib_47
                                                                _lib_46:
000002C4: 8D 55 FC                                              	LEA	EDX,[EBP-4]	; n=b*n+digit;
000002C7: 8D 5D 08                                              	LEA	EBX,[EBP+8]
000002CA: 8B 0B                                                 	MOV	ECX,[EBX]	; b
                                                                	;LEA	EDX,[EBP-4]
000002CC: 8B 02                                                 	MOV	EAX,[EDX]	; n
000002CE: F7 E9                                                 	IMUL	ECX		; b*n
                                                                	; eax = b*n
000002D0: 8D 5D F8                                              	LEA	EBX,[EBP-8]
000002D3: 8B 0B                                                 	MOV	ECX,[EBX]
000002D5: 01 C8                                                 	ADD	EAX,ECX
000002D7: 89 02                                                 	MOV	[EDX],EAX
000002D9: E9 76 FF FF FF                                        	JMP	_lib_37
                                                                
                                                                ; Gets an entire string (including its newline terminator)
                                                                
                                                                _fgets:				; fgets(str,size,fd)
000002DE: 55                                                    	PUSH	EBP
000002DF: 89 E5                                                 	MOV	EBP,ESP		; return (_gets(str,size,fd,1));
000002E1: 8D 5D 10                                              	LEA	EBX,[EBP+16]
000002E4: 8B 03                                                 	MOV	EAX,[EBX]
000002E6: 50                                                    	PUSH	EAX		; str
000002E7: 8D 5D 0C                                              	LEA	EBX,[EBP+12]
000002EA: 8B 03                                                 	MOV	EAX,[EBX]
000002EC: 50                                                    	PUSH	EAX		; size
000002ED: 8D 5D 08                                              	LEA	EBX,[EBP+8]
000002F0: 8B 03                                                 	MOV	EAX,[EBX]
000002F2: 50                                                    	PUSH	EAX		; fd
000002F3: B8 01 00 00 00                                        	MOV	EAX,1
                                                                	;PUSH	EAX		; 1
                                                                	;;MOV	CL,4
                                                                	;CALL	__gets
                                                                	;;ADD	ESP,16
                                                                	;MOV	ESP,EBP
                                                                	;POP	EBP
                                                                	;RETN
000002F8: EB 17                                                 	JMP	short _gets_@
                                                                
                                                                ; Gets an entire string from stdin
                                                                ;	(excluding its newline terminator)
                                                                
                                                                	; /* TRDOS 386 v2 modification */
                                                                _gets:				; gets(str)
000002FA: 55                                                    	PUSH	EBP		; char *str;
000002FB: 89 E5                                                 	MOV	EBP,ESP
000002FD: 8D 5D 08                                              	LEA	EBX,[EBP+8]	; return (_gets(str,32767,stdin,0))
00000300: 8B 03                                                 	MOV	EAX,[EBX]
00000302: 50                                                    	PUSH	EAX		; str
00000303: B8 FF 7F 00 00                                        	MOV	EAX,32767
00000308: 50                                                    	PUSH	EAX		; size
00000309: B8 FF FF FF FF                                        	MOV	EAX,-1 ; STDIN	; stdin is -1 for TRDOS 386
0000030E: 50                                                    	PUSH	EAX		; -1
0000030F: 31 C0                                                 	XOR	EAX,EAX
                                                                _gets_@:
00000311: 50                                                    	PUSH	EAX		; 0
                                                                	;MOV	CL,4
00000312: E8 04 00 00 00                                        	CALL	__gets
                                                                	;ADD	ESP,16
00000317: 89 EC                                                 	MOV	ESP,EBP
00000319: 5D                                                    	POP	EBP
0000031A: C3                                                    	RETN
                                                                
                                                                	; /* TRDOS 386 v2 modification */
                                                                __gets:
0000031B: 55                                                    	PUSH	EBP		; _gets(str,size,fd,nl)
0000031C: 89 E5                                                 	MOV	EBP,ESP	; char *str; unsigned size,fd,nl;
0000031E: 83 C4 F8                                              	ADD	ESP,-8		; int backup; char *next;
00000321: 8D 5D 14                                              	LEA	EBX,[EBP+20]
00000324: 8B 03                                                 	MOV	EAX,[EBX]	; str
00000326: 8D 5D F8                                              	LEA	EBX,[EBP-8]	; next
00000329: 89 03                                                 	MOV	[EBX],EAX	; next=str;
                                                                _gets_1:
                                                                _gets_2:
                                                                _gets_3:			; while(--size>0)
0000032B: 8D 5D 10                                              	LEA	EBX,[EBP+16]
0000032E: 8B 03                                                 	MOV	EAX,[EBX]
00000330: 48                                                    	DEC	EAX
00000331: 89 03                                                 	MOV	[EBX],EAX	; --size
00000333: 8D 55 F8                                              	LEA	EDX,[EBP-8] ;*	; next
00000336: 8B 1A                                                 	MOV	EBX,[EDX] ;*
00000338: 09 C0                                                 	OR	EAX,EAX
                                                                	;JNZ	short _gets_5
                                                                	;JMP	short _gets_4
0000033A: 74 47                                                 	JZ	short _gets_4
                                                                ;_gets_4:
                                                                	;LEA	EDX,[EBP-8]	; *next = NULL;
                                                                	;MOV	EBX,[EDX]
                                                                	;XOR	EAX,EAX
                                                                	;MOV	[EBX],AL
                                                                	;LEA	EBX,[EBP+20]
                                                                	;MOV	EAX,[EBX]
                                                                	;MOV	ESP,EBP
                                                                	;POP	EBP
                                                                	;RETN
                                                                	;JMP	short _gets_9
                                                                _gets_5:			; {switch (*next=OS_fgetc(fd))
                                                                	;LEA	EDX,[EBP-8]
                                                                	;MOV	EBX,[EDX]
0000033C: 53                                                    	PUSH	EBX
0000033D: 8D 5D 0C                                              	LEA	EBX,[EBP+12]
00000340: 8B 03                                                 	MOV	EAX,[EBX]
00000342: 50                                                    	PUSH	EAX		; fd
                                                                	;MOV	CL,1
00000343: E8 35 0B 00 00                                        	CALL	_OS_fgetc
00000348: 83 C4 04                                              	ADD	ESP,4
0000034B: 5B                                                    	POP	EBX
0000034C: 88 03                                                 	MOV	[EBX],AL	; *next=OS_fgetc(fd)
0000034E: EB 74                                                 	JMP	short _gets_19
                                                                _gets_6:			; case EOF:
00000350: 8D 55 F8                                              	LEA	EDX,[EBP-8]	; *next=NULL;
00000353: 8B 1A                                                 	MOV	EBX,[EDX]
                                                                	;XOR	EAX,EAX
                                                                	;MOV	[EBX],AL
00000355: C6 03 00                                              	MOV	BYTE [EBX],0
                                                                	;LEA	EDX,[EBP-8]	; if(next==str)
                                                                	;MOV	EBX,[EDX]
00000358: 8D 4D 14                                              	LEA	ECX,[EBP+20]
0000035B: 8B 01                                                 	MOV	EAX,[ECX]
0000035D: E8 C9 FC FF FF                                        	CALL	__eq
00000362: 09 C0                                                 	OR	EAX,EAX
00000364: 74 20                                                 	JZ	short _gets_10
                                                                _gets_7:
00000366: 31 C0                                                 	XOR	EAX,EAX	; 0	; NULL
00000368: 89 EC                                                 	MOV	ESP,EBP
0000036A: 5D                                                    	POP	EBP
0000036B: C3                                                    	RETN
                                                                		; 04/04/2026 - TRDOS 386 Modification
                                                                _gets_21:			; case '\r': ; CR
0000036C: 8D 55 08                                              	LEA	EDX,[EBP+8]
0000036F: 8B 02                                                 	MOV	EAX,[EDX]	; if (nl==NULL) nl=-1;
00000371: 09 C0                                                 	OR	EAX,EAX
00000373: 75 45                                                 	JNZ	short _gets_22
                                                                	;MOV	[EDX],-1	; (1 byte backward more)
00000375: FF 0A                                                 	DEC	DWORD [EDX]
00000377: EB 41                                                 	JMP	short _gets_22	; ((put 0 instead of CR))
                                                                ;_gets_22:
                                                                	;LEA	EBX,[EBP-8]
                                                                	;INC	DWORD [EBX]	; ++next;
                                                                	;JMP	short _gets_3	; continue;
                                                                	
                                                                _gets_8:			; case '\n': ; LF	
00000379: 8D 55 F8                                              	LEA	EDX,[EBP-8]	; *(next+nl)=NULL;
0000037C: 8B 1A                                                 	MOV	EBX,[EDX]
0000037E: 8D 4D 08                                              	LEA	ECX,[EBP+8]
                                                                	;MOV	EAX,[ECX]
                                                                	;ADD	EBX,EAX
00000381: 03 19                                                 	ADD	EBX,[ECX]
                                                                _gets_4:
                                                                _gets_9:
                                                                	;XOR	EAX,EAX	; 0	; NULL
                                                                	;MOV	[EBX],EAX	; *next = 0
00000383: C6 03 00                                              	MOV	BYTE [EBX],0
                                                                _gets_10:			; return (str);
00000386: 8D 5D 14                                              	LEA	EBX,[EBP+20]
00000389: 8B 03                                                 	MOV	EAX,[EBX]
0000038B: 89 EC                                                 	MOV	ESP,EBP
0000038D: 5D                                                    	POP	EBP
0000038E: C3                                                    	RETN
                                                                _gets_11:			; case RUB: // \b
0000038F: 8D 55 F8                                              	LEA	EDX,[EBP-8]	; if(next>str)
00000392: 8B 1A                                                 	MOV	EBX,[EDX]
00000394: 8D 4D 14                                              	LEA	ECX,[EBP+20]
00000397: 8B 01                                                 	MOV	EAX,[ECX]
00000399: E8 78 FC FF FF                                        	CALL	__ugt
0000039E: 8D 5D FC                                              	LEA	EBX,[EBP-4] ; *
000003A1: 09 C0                                                 	OR	EAX,EAX
000003A3: 74 02                                                 	JZ	short _gets_13	; backup=0;
                                                                _gets_12:
                                                                	;LEA	EBX,[EBP-4] ; *	; backup=1;
                                                                	;MOV	EAX,1
                                                                	;MOV	[EBX],EAX ; **
000003A5: EB 11                                                 	JMP	short _gets_15
                                                                _gets_13:
                                                                	;LEA	EBX,[EBP-4] ; *
                                                                	;XOR	EAX,EAX
                                                                	;MOV	[EBX],EAX ; **
000003A7: EB 0F                                                 	JMP	short _gets_16
                                                                _gets_14:			; case WIPE:
000003A9: 8D 55 F8                                              	LEA	EDX,[EBP-8]
000003AC: 8B 02                                                 	MOV	EAX,[EDX]	; next
000003AE: 8D 4D 14                                              	LEA	ECX,[EBP+20]
000003B1: 8B 19                                                 	MOV	EBX,[ECX]	; str
000003B3: 29 D8                                                 	SUB	EAX,EBX
000003B5: 8D 5D FC                                              	LEA	EBX,[EBP-4]	; backup=next-str;
                                                                	;MOV	[EBX],EAX
                                                                _gets_15:
                                                                _gets_16:
000003B8: 89 03                                                 	MOV	[EBX],EAX ; **
                                                                _gets_17:
                                                                _gets_18:
                                                                _gets_22:
000003BA: 8D 5D F8                                              	LEA	EBX,[EBP-8]	; ++next;
                                                                	;MOV	EAX,[EBX]
                                                                	;INC	EAX
                                                                	;MOV	[EBX],EAX
000003BD: FF 03                                                 	INC	DWORD [EBX]	; 04/04/2026
000003BF: E9 67 FF FF FF                                        	JMP	_gets_2	; while
                                                                
                                                                _gets_19:	; {switch (*next=OS_fgetc(fd))
000003C4: E8 99 FC FF FF                                        	CALL	__switch
                                                                
000003C9: 50 03 00 00                                            DD _gets_6	; case EOF:
000003CD: FF FF FF FF                                            DD -1
000003D1: 6C 03 00 00                                            DD _gets_21	; case '\r':	; 04/04/2026
000003D5: 0D 00 00 00                                            DD 13
000003D9: 79 03 00 00                                            DD _gets_8	; case '\n':
000003DD: 0A 00 00 00                                            DD 10
000003E1: 8F 03 00 00                                            DD _gets_11	; case RUB:
000003E5: 08 00 00 00                                            DD 8
000003E9: A9 03 00 00                                            DD _gets_14	; case WIPE:
000003ED: 18 00 00 00                                            DD 24
000003F1: 00 00 00 00                                            DD 0		; default:
000003F5: EB C3                                                 	JMP	short _gets_18
                                                                
                                                                ;_gets_20: DB 8,32,8,0		; "\b \b"
                                                                
                                                                ; /* fprintf(fd, ctlstring, arg, arg, ...)
                                                                ; Formatted print. */
                                                                ; (b, c, d, o, s, u, and x specifications are supported.) */
                                                                
                                                                _fprintf:			; fprintf(argc) int argc;
000003F7: 55                                                    	PUSH	EBP
000003F8: 89 E5                                                 	MOV	EBP,ESP
000003FA: 83 C4 FC                                              	ADD	ESP,-4		; int *nxtarg;
                                                                
000003FD: E8 07 FC FF FF                                        	CALL	_CCARGC		; mov eax,cl ; library
                                                                	; eax = number of fprintf arguments
00000402: 8D 5D 08                                              	LEA	EBX,[EBP+8]	; &argc
00000405: 48                                                    	DEC	EAX ; *		; (sub eax,1)
00000406: D1 E0                                                 	SHL	EAX,1
00000408: D1 E0                                                 	SHL	EAX,1
0000040A: 01 D8                                                 	ADD	EAX,EBX
0000040C: 8D 5D FC                                              	LEA	EBX,[EBP-4]	; nxtarg
                                                                	;MOV	[EBX],EAX	; = CCARGC()+&argc;
                                                                				; return(_print(*(--nxtarg),--nxtarg));
                                                                	;LEA	EBX,[EBP-4]
                                                                	;MOV	EAX,[EBX]
                                                                	;SUB	EAX,4 *
0000040F: 89 03                                                 	MOV	[EBX],EAX	; fd address
00000411: 8B 08                                                 	MOV	ECX,[EAX]
00000413: 51                                                    	PUSH	ECX		; file number
                                                                	;LEA	EBX,[EBP-4]
                                                                	;MOV	EAX,[EBX]
00000414: 83 E8 04                                              	SUB	EAX,4
00000417: 89 03                                                 	MOV	[EBX],EAX
                                                                	;PUSH	EAX
                                                                	;;MOV	CL,2
                                                                	;CALL	__print
                                                                	;;ADD	ESP,8
                                                                	;MOV	ESP,EBP
                                                                	;POP	EBP
                                                                	;RETN
00000419: EB 18                                                 	JMP	short _print_f_@
                                                                
                                                                ; /* printf(ctlstring, arg, arg, ...) - Formatted print.
                                                                ; (b, c, d, o, s, u, and x specifications are supported.)
                                                                ; Note: b (binary) is a non-standard extension. */
                                                                
                                                                _printf:
0000041B: 55                                                    	PUSH	EBP
0000041C: 89 E5                                                 	MOV	EBP,ESP
0000041E: B8 FF FF FF FF                                        	MOV	EAX,-1	; TRDOS 386 STDOUT/STDERR
00000423: 50                                                    	PUSH	EAX		; (file number)
00000424: E8 E0 FB FF FF                                        	CALL	_CCARGC		; mov eax,cl ; library
                                                                	; eax = number of printf arguments
00000429: 8D 5D 08                                              	LEA	EBX,[EBP+8]	; &argc
0000042C: 48                                                    	DEC	EAX ; *		; (sub eax,1)
0000042D: D1 E0                                                 	SHL	EAX,1
0000042F: D1 E0                                                 	SHL	EAX,1
00000431: 01 D8                                                 	ADD	EAX,EBX		; CCARGC()+&argc-1
                                                                	;SUB	EAX,4 ; *
                                                                _print_f_@:
00000433: 50                                                    	PUSH	EAX
                                                                	;MOV	CL,2
00000434: E8 04 00 00 00                                        	CALL	__print
                                                                	;ADD	ESP,8
00000439: 89 EC                                                 	MOV	ESP,EBP
0000043B: 5D                                                    	POP	EBP
0000043C: C3                                                    	RETN
                                                                
                                                                ; /* _print(fd, ctlstring, arg, arg, ...)
                                                                ; ** Called by fprintf() and printf(). */
                                                                
                                                                __print:			; _print(fd,nxtarg)
0000043D: 55                                                    	PUSH	EBP		; int fd,*nxtarg;
0000043E: 89 E5                                                 	MOV	EBP,ESP
                                                                		; int arg,left,pad,cc,len,maxchr,width;
00000440: 83 C4 C8                                              	ADD	ESP,-56		; char *ctl,*sptr,str[17];
00000443: 8D 5D F0                                              	LEA	EBX,[EBP-16]	; cc=0;
00000446: 31 C0                                                 	XOR	EAX,EAX
00000448: 89 03                                                 	MOV	[EBX],EAX
                                                                	; 07/04/2026
0000044A: 50                                                    	PUSH	EAX		; c=0;
                                                                	;
0000044B: 8D 5D E0                                              	LEA	EBX,[EBP-32]	; ctl=*nxtarg--;
0000044E: 8D 55 08                                              	LEA	EDX,[EBP+8]
00000451: 8B 02                                                 	MOV	EAX,[EDX]
00000453: 8B 08                                                 	MOV	ECX,[EAX]
00000455: 89 0B                                                 	MOV	[EBX],ECX
00000457: 83 E8 04                                              	SUB	EAX,4
0000045A: 89 02                                                 	MOV	[EDX],EAX
                                                                _p_1:				; while(*ctl)
0000045C: 8D 55 E0                                              	LEA	EDX,[EBP-32]
0000045F: 8B 02                                                 	MOV	EAX,[EDX]
00000461: 0F BE 18                                              	MOVSX	EBX,BYTE [EAX]
00000464: 09 DB                                                 	OR	EBX,EBX
00000466: 75 09                                                 	JNZ	short _p_3
                                                                _p_2:			; return (cc);
00000468: 8D 5D F0                                              	LEA	EBX,[EBP-16]
0000046B: 8B 03                                                 	MOV	EAX,[EBX]
0000046D: 89 EC                                                 	MOV	ESP,EBP
0000046F: 5D                                                    	POP	EBP
00000470: C3                                                    	RETN
                                                                _p_3:				; {if(*ctl!='%')
                                                                	;LEA	EDX,[EBP-32]
                                                                	;MOV	EAX,[EDX]
                                                                	;MOVSX	EBX,BYTE [EAX]
00000471: B8 25 00 00 00                                        	MOV	EAX,37	; '%'
00000476: E8 B7 FB FF FF                                        	CALL	__ne
0000047B: 09 C0                                                 	OR	EAX,EAX
0000047D: 74 45                                                 	JZ	short _p_5	; else
                                                                _p_4: ; (!)
                                                                	; 07/04/2026 (CRLF)
0000047F: 8D 5D C4                                              	LEA	EBX,[EBP-60]
00000482: 8A 03                                                 	MOV	AL,[EBX]
00000484: 3C 0D                                                 	CMP	AL,13		; if(c!='\r') {
00000486: 74 1F                                                 	JE	short _p_34
                                                                
                                                                	;LEA	EDX,[EBP-32]
00000488: 8B 0A                                                 	MOV	ECX,[EDX]
0000048A: 0F BE 01                                              	MOVSX	EAX,BYTE [ECX]	; c=*ctl;
0000048D: 89 03                                                 	MOV	[EBX],EAX
                                                                				; if(c=='\n')
0000048F: 3C 0A                                                 	CMP	AL,10	; LF	; '\n'
00000491: 75 14                                                 	JNE	short _p_34
                                                                	
00000493: B0 0D                                                 	MOV	AL,13	; CR	; put CR before LF
00000495: 50                                                    	PUSH	EAX
00000496: 8D 5D 0C                                              	LEA	EBX,[EBP+12]
00000499: 8B 03                                                 	MOV	EAX,[EBX]
0000049B: 50                                                    	PUSH	EAX		; fd
                                                                	;MOV	CL,2
0000049C: E8 1B 0A 00 00                                        	CALL	_OS_fputc	; OS_fputc('\r',fd);
000004A1: 83 C4 08                                              	ADD	ESP,8
000004A4: 8D 55 E0                                              	LEA	EDX,[EBP-32]
                                                                	;MOV	AL,10		; CRLF
                                                                _p_34:
                                                                	;LEA	EDX,[EBP-32]	; {OS_fputc(*ctl++,fd);
000004A7: 8B 1A                                                 	MOV	EBX,[EDX]
                                                                	;INC	EBX
                                                                	;MOV	[EDX],EBX
                                                                	;DEC	EBX
000004A9: FF 02                                                 	INC	DWORD [EDX]
000004AB: 0F BE 03                                              	MOVSX	EAX,BYTE [EBX]
000004AE: 50                                                    	PUSH	EAX		; *ctl (character)
                                                                
000004AF: 8D 5D 0C                                              	LEA	EBX,[EBP+12]	; fd (file number)
000004B2: 8B 03                                                 	MOV	EAX,[EBX]
000004B4: 50                                                    	PUSH	EAX
                                                                	;MOV	CL,2
000004B5: E8 02 0A 00 00                                        	CALL	_OS_fputc
000004BA: 83 C4 08                                              	ADD	ESP,8
000004BD: 8D 5D F0                                              	LEA	EBX,[EBP-16]	; ++cc;
                                                                	;MOV	EAX,[EBX]
                                                                	;INC	EAX
                                                                	;MOV	[EBX],EAX
000004C0: FF 03                                                 	INC	DWORD [EBX]
000004C2: EB 98                                                 	JMP	short _p_1	; continue;
                                                                _p_5:
                                                                	;LEA	EDX,[EBP-32]	; else ++ctl;
                                                                	;MOV	EAX,[EDX]
                                                                	;INC	EAX
                                                                	;MOV	[EDX],EAX
000004C4: FF 02                                                 	INC	DWORD [EDX]	; (next char)
                                                                	;
                                                                	;LEA	EDX,[EBP-32]	; if(*ctl=='%')
000004C6: 8B 02                                                 	MOV	EAX,[EDX]
000004C8: 0F BE 18                                              	MOVSX	EBX,BYTE [EAX]  ; (*)
000004CB: B8 25 00 00 00                                        	MOV	EAX,37	; '%'
000004D0: E8 56 FB FF FF                                        	CALL	__eq
000004D5: 09 C0                                                 	OR	EAX,EAX
                                                                	;JZ	short _lib_81
000004D7: 75 A6                                                 	JNZ	short _p_4 ; (!)
                                                                ;_p_4:			; %%
                                                                	;;LEA	EDX,[EBP-32]	; {OS_fputc(*ctl++,fd);
                                                                	;;MOV	EBX,[EDX]
                                                                	;;INC	EBX
                                                                	;;MOV	[EDX],EBX
                                                                	;;DEC	EBX
                                                                	;INC	DWORD [EDX]
                                                                	;;MOVSX	EAX,BYTE [EBX]
                                                                	;;PUSH	EAX ; (*)
                                                                	;PUSH	EBX ; (*)	; '%'
                                                                	;LEA	EAX,[EBP+12]	; fd (file number)
                                                                	;MOV	EAX,[EBX]	; STDOUT = -1 (TRDOS 386)
                                                                	;PUSH	EAX
                                                                	;;MOV	CL,2
                                                                	;CALL	_OS_fputc
                                                                	;ADD	ESP,8
                                                                	;LEA	EBX,[EBP-16]	; ++cc;
                                                                	;;MOV	EAX,[EBX]
                                                                	;;INC	EAX
                                                                	;;MOV	[EBX],EAX
                                                                	;INC	DWORD [EBX]
                                                                	;JMP	short _p_1	; continue;
                                                                ;_lib_81: ; (!)
                                                                	;LEA	EDX,[EBP-32]	; if(*ctl=='-')
                                                                	;MOV	EAX,[EDX]
                                                                	;MOVSX	EBX,BYTE [EAX]
                                                                	; ebx = character (*ctl)
000004D9: B8 2D 00 00 00                                        	MOV	EAX,45	; '-'
000004DE: E8 48 FB FF FF                                        	CALL	__eq
000004E3: 8D 5D F8                                              	LEA	EBX,[EBP-8] ; *
000004E6: 89 03                                                 	MOV	[EBX],EAX ; *	; (eax = 0 or 1)
000004E8: 09 C0                                                 	OR	EAX,EAX
000004EA: 74 02                                                 	JZ	short _p_6	; else
                                                                ;_lib_84:
                                                                	;LEA	EBX,[EBP-8] ; *	; {left=1; ++ctl;}
                                                                	;MOV	EAX,1
                                                                	; eax = 1
                                                                	;MOV	[EBX],EAX ; *
                                                                	;LEA	EDX,[EBP-32]	; ++ctl;
                                                                	;MOV	EAX,[EDX]
                                                                	;INC	EAX
                                                                	;MOV	[EDX],EAX
000004EC: FF 02                                                 	INC	DWORD [EDX]
                                                                	;JMP	short _p_7
                                                                _p_6:
                                                                	;LEA	EBX,[EBP-8] ; *	; else left=0;
                                                                	;XOR	EAX,EAX
                                                                	; eax = 0
                                                                	;MOV	[EBX],EAX ; *
                                                                _p_7:
                                                                	;LEA	EDX,[EBP-32]	; if(*ctl=='0') pad='0';
000004EE: 8B 02                                                 	MOV	EAX,[EDX]
000004F0: 0F BE 18                                              	MOVSX	EBX,BYTE [EAX]
000004F3: B8 30 00 00 00                                        	MOV	EAX,48	; '0'
000004F8: E8 2E FB FF FF                                        	CALL	__eq
000004FD: 8D 4D F4                                              	LEA	ECX,[EBP-12] ; *
00000500: 09 C0                                                 	OR	EAX,EAX
                                                                	;JZ	short _lib_86	; else
00000502: 75 05                                                 	JNZ	short _p_8	; ** (ebx = '0')
                                                                ;_lib_87:
                                                                	;LEA	ECX,[EBP-12] ;*	; pad='0';
                                                                	;MOV	EAX,48	; '0'
                                                                	;MOV	[ECX],EAX
                                                                	; ebx = '0' = 48
                                                                	;MOV	[ECX],EBX
                                                                	;JMP	short _p_8	; ** (ebx = '0')
                                                                ;_lib_86:			
                                                                	;LEA	ECX,[EBP-12] ; *
00000504: BB 20 00 00 00                                        	MOV	EBX,32 ; space	; else pad=' ';
                                                                _p_8: ; **
00000509: 89 19                                                 	MOV	[ECX],EBX
                                                                ;_p_8:
                                                                	;LEA	EDX,[EBP-32]	; if(isdigit(*ctl))
0000050B: 8B 1A                                                 	MOV	EBX,[EDX]
0000050D: 0F BE 03                                              	MOVSX	EAX,BYTE [EBX]
00000510: 50                                                    	PUSH	EAX
                                                                	;MOV	CL,1
00000511: E8 9E 04 00 00                                        	CALL	_isdigit
00000516: 83 C4 04                                              	ADD	ESP,4
00000519: 09 C0                                                 	OR	EAX,EAX
0000051B: 74 34                                                 	JZ	short _p_10	; else
                                                                ;_lib_90:
0000051D: 8D 5D E0                                              	LEA	EBX,[EBP-32]	; ctl++
00000520: 8B 03                                                 	MOV	EAX,[EBX]
00000522: FF 03                                                 	INC	DWORD [EBX]
00000524: 50                                                    	PUSH	EAX
                                                                	;MOV	CL,1
00000525: E8 56 FC FF FF                                        	CALL	_atoi
0000052A: 83 C4 04                                              	ADD	ESP,4
0000052D: 8D 5D E4                                              	LEA	EBX,[EBP-28]	; width=atoi(ctl++);
00000530: 89 03                                                 	MOV	[EBX],EAX
                                                                ;_p_9:				; while(isdigit(*ctl))
00000532: 8D 45 E0                                              	LEA	EAX,[EBP-32]
00000535: 8B 18                                                 	MOV	EBX,[EAX]
                                                                _p_9: ; *
00000537: 0F BE 03                                              	MOVSX	EAX,BYTE [EBX]
0000053A: 50                                                    	PUSH	EAX
                                                                	;MOV	CL,1
0000053B: E8 74 04 00 00                                        	CALL	_isdigit
00000540: 83 C4 04                                              	ADD	ESP,4
00000543: 09 C0                                                 	OR	EAX,EAX
00000545: 74 0F                                                 	JZ	short _p_11
                                                                ;_lib_93:			; ++ctl;
00000547: 8D 45 E0                                              	LEA	EAX,[EBP-32]
0000054A: 8B 18                                                 	MOV	EBX,[EAX]
0000054C: 43                                                    	INC	EBX
0000054D: 89 18                                                 	MOV	[EAX],EBX
0000054F: EB E6                                                 	JMP	short _p_9 ;*	; while
                                                                _p_10:
00000551: 8D 5D E4                                              	LEA	EBX,[EBP-28]	; else width=0;
                                                                	;XOR	EAX,EAX ; 0
                                                                	; eax = 0
00000554: 89 03                                                 	MOV	[EBX],EAX
                                                                _p_11:
00000556: 8D 55 E0                                              	LEA	EDX,[EBP-32]	; if(*ctl=='.')
00000559: 8B 0A                                                 	MOV	ECX,[EDX]
0000055B: 0F BE 19                                              	MOVSX	EBX,BYTE [ECX]
0000055E: B8 2E 00 00 00                                        	MOV	EAX,46	; '.'
00000563: E8 C3 FA FF FF                                        	CALL	__eq
00000568: 09 C0                                                 	OR	EAX,EAX
0000056A: 74 30                                                 	JZ	short _p_13	; else
                                                                ;_lib_96:
                                                                	;LEA	EDX,[EBP-32]	; ++ctl
                                                                	;MOV	ECX,[EDX]
0000056C: 41                                                    	INC	ECX
0000056D: 89 0A                                                 	MOV	[EDX],ECX
0000056F: 51                                                    	PUSH	ECX
                                                                	;MOV	CL,1
00000570: E8 0B FC FF FF                                        	CALL	_atoi
00000575: 83 C4 04                                              	ADD	ESP,4
00000578: 8D 5D E8                                              	LEA	EBX,[EBP-24]	; maxchr=atoi(++ctl);
0000057B: 89 03                                                 	MOV	[EBX],EAX
                                                                ;_p_12:
0000057D: 8D 45 E0                                              	LEA	EAX,[EBP-32]	; while(isdigit(*ctl))
00000580: 8B 18                                                 	MOV	EBX,[EAX]
                                                                _p_12:	; *
00000582: 0F BE 03                                              	MOVSX	EAX,BYTE [EBX]
00000585: 50                                                    	PUSH	EAX
                                                                	;MOV	CL,1
00000586: E8 29 04 00 00                                        	CALL	_isdigit
0000058B: 83 C4 04                                              	ADD	ESP,4
0000058E: 09 C0                                                 	OR	EAX,EAX
00000590: 74 0F                                                 	JZ	short _p_14
                                                                ;_lib_99:
00000592: 8D 45 E0                                              	LEA	EAX,[EBP-32]	; ++ctl;
00000595: 8B 18                                                 	MOV	EBX,[EAX]
00000597: 43                                                    	INC	EBX
00000598: 89 18                                                 	MOV	[EAX],EBX
0000059A: EB E6                                                 	JMP	short _p_12 ;*	; while
                                                                _p_13:
0000059C: 8D 5D E8                                              	LEA	EBX,[EBP-24]	; else maxchr=0;
                                                                	;XOR	EAX,EAX
                                                                	; eax = 0
0000059F: 89 03                                                 	MOV	[EBX],EAX
                                                                _p_14:				; arg=*nxtarg--;
000005A1: 8D 55 08                                              	LEA	EDX,[EBP+8]
000005A4: 8B 1A                                                 	MOV	EBX,[EDX]	; *nxtarg
000005A6: 83 2A 04                                              	SUB	DWORD [EDX],4
000005A9: 8B 03                                                 	MOV	EAX,[EBX]
000005AB: 8D 5D FC                                              	LEA	EBX,[EBP-4]	; arg
000005AE: 89 03                                                 	MOV	[EBX],EAX
000005B0: 8D 55 DC                                              	LEA	EDX,[EBP-36]	; sptr=str;
000005B3: 8D 45 C8                                              	LEA	EAX,[EBP-56]
000005B6: 89 02                                                 	MOV	[EDX],EAX
000005B8: 8D 5D E0                                              	LEA	EBX,[EBP-32]	; switch(*ctl++)
000005BB: 8B 0B                                                 	MOV	ECX,[EBX]
000005BD: FF 03                                                 	INC	DWORD [EBX]
000005BF: 0F BE 01                                              	MOVSX	EAX,BYTE [ECX]
000005C2: EB 4C                                                 	JMP	short _p_22
                                                                _p_15:			; case 'c':
000005C4: 8D 55 C8                                              	LEA	EDX,[EBP-56]	; str[0]=arg;
000005C7: 8D 5D FC                                              	LEA	EBX,[EBP-4]
000005CA: 8B 03                                                 	MOV	EAX,[EBX]
000005CC: 88 02                                                 	MOV	[EDX],AL
                                                                	;LEA	EDX,[EBP-56]
                                                                	;ADD	EDX,1
000005CE: 42                                                    	INC	EDX
000005CF: 31 C0                                                 	XOR	EAX,EAX ; 0
000005D1: 88 02                                                 	MOV	[EDX],AL	; str[1]=NULL;
000005D3: E9 96 00 00 00                                        	JMP	_p_24	; break;
                                                                _p_16:			; case 's':
000005D8: 8D 5D FC                                              	LEA	EBX,[EBP-4]	; sptr=arg;
000005DB: 8B 03                                                 	MOV	EAX,[EBX]
000005DD: 8D 5D DC                                              	LEA	EBX,[EBP-36]
000005E0: 89 03                                                 	MOV	[EBX],EAX
000005E2: E9 87 00 00 00                                        	JMP	_p_24	; break;
                                                                _p_17:			; case 'd':
000005E7: 8D 5D FC                                              	LEA	EBX,[EBP-4]	; itoa(arg,str);
000005EA: 8B 03                                                 	MOV	EAX,[EBX]
000005EC: 50                                                    	PUSH	EAX
000005ED: 8D 45 C8                                              	LEA	EAX,[EBP-56]
000005F0: 50                                                    	PUSH	EAX
                                                                	;MOV	CL,2
000005F1: E8 96 04 00 00                                        	CALL	_itoa
000005F6: 83 C4 08                                              	ADD	ESP,8
000005F9: EB 73                                                 	JMP	short _p_24	; break;
                                                                _p_19:			; case 'o':
000005FB: B9 08 00 00 00                                        	MOV	ECX,8 ; *
                                                                	;LEA	EBX,[EBP-4]	; itoab(arg,str,8);
                                                                	;MOV	EAX,[EBX]
                                                                	;PUSH	EAX		; arg
                                                                	;LEA	EAX,[EBP-56]
                                                                	;PUSH	EAX		; str
                                                                	;MOV	EAX,8
                                                                	;;PUSH	EAX
                                                                	;;;MOV	CL,3
                                                                	;;CALL	_itoab
                                                                	;;;ADD	ESP,12
                                                                	;;JMP	short _p_24	; break;
                                                                	;JMP	short _lib_116
00000600: EB 59                                                 	JMP	short _p_23
                                                                _p_20:			; case 'u':
00000602: B9 0A 00 00 00                                        	MOV	ECX,10 ; *
                                                                	;LEA	EBX,[EBP-4]	; itoab(arg,str,10);
                                                                	;MOV	EAX,[EBX]
                                                                	;PUSH	EAX		; arg
                                                                	;LEA	EAX,[EBP-56]
                                                                	;PUSH	EAX		; str
                                                                	;MOV	EAX,10
                                                                	;;PUSH	EAX
                                                                	;;;MOV	CL,3
                                                                	;;CALL	_itoab
                                                                	;;;ADD	ESP,12
                                                                	;;JMP	short _p_24	; break;
                                                                	;JMP	short _lib_116
00000607: EB 52                                                 	JMP	short _p_23
                                                                _p_21:			; case 'x':
00000609: B9 10 00 00 00                                        	MOV	ECX,16 ; *
                                                                	;LEA	EBX,[EBP-4]	; itoab(arg,str,16);
                                                                	;MOV	EAX,[EBX]
                                                                	;PUSH	EAX		; arg
                                                                	;LEA	EAX,[EBP-56]
                                                                	;PUSH	EAX		; str
                                                                	;MOV	EAX,16
                                                                	;;PUSH	EAX
                                                                	;;;MOV	CL,3
                                                                	;;CALL	_itoab
                                                                	;;;ADD	ESP,12
                                                                	;;JMP	short _p_24	; break;
                                                                	;JMP	short _lib_116
0000060E: EB 4B                                                 	JMP	short _p_23
                                                                
                                                                ;_p_2:
                                                                	;LEA	EAX,[EBP-16]
                                                                	;MOV	EBX,EAX
                                                                	;MOV	EAX,[EBX]
                                                                	;MOV	ESP,EBP
                                                                	;POP	EBP
                                                                	;RETN
                                                                
                                                                _p_22:			; switch(*ctl++)
00000610: E8 4D FA FF FF                                        	CALL	__switch
                                                                
00000615: C4 05 00 00                                            DD _p_15	; case 'c':
00000619: 63 00 00 00                                            DD 99
0000061D: D8 05 00 00                                            DD _p_16	; case 's':
00000621: 73 00 00 00                                            DD 115
00000625: E7 05 00 00                                            DD _p_17	; case 'd':
00000629: 64 00 00 00                                            DD 100
0000062D: 56 06 00 00                                            DD _p_18	; case 'b':
00000631: 62 00 00 00                                            DD 98
00000635: FB 05 00 00                                            DD _p_19	; case 'o':
00000639: 6F 00 00 00                                            DD 111
0000063D: 02 06 00 00                                            DD _p_20	; case 'u':
00000641: 75 00 00 00                                            DD 117
00000645: 09 06 00 00                                            DD _p_21	; case 'x':
00000649: 78 00 00 00                                            DD 120
0000064D: 00 00 00 00                                            DD 0		; default:
00000651: E9 12 FE FF FF                                        	JMP	_p_2	; return (cc);
                                                                
                                                                _p_18:			; case 'b':
00000656: B9 02 00 00 00                                        	MOV	ECX,2 ; *
                                                                _p_23:
                                                                	; ecx = number base (2,8,10,16)
0000065B: 8D 5D FC                                              	LEA	EBX,[EBP-4]	; itoab(arg,str,?);
0000065E: 8B 03                                                 	MOV	EAX,[EBX]
00000660: 50                                                    	PUSH	EAX		; arg
00000661: 8D 45 C8                                              	LEA	EAX,[EBP-56]
00000664: 50                                                    	PUSH	EAX		; str
                                                                ;_lib_116:
                                                                	;PUSH	EAX
00000665: 51                                                    	PUSH	ECX ; *
                                                                	;MOV	CL,3
00000666: E8 89 04 00 00                                        	CALL	_itoab
0000066B: 83 C4 0C                                              	ADD	ESP,12
                                                                _p_24:
0000066E: 8D 5D DC                                              	LEA	EBX,[EBP-36]
00000671: 8B 03                                                 	MOV	EAX,[EBX]
00000673: 50                                                    	PUSH	EAX
                                                                	;MOV	CL,1
00000674: E8 B4 FA FF FF                                        	CALL	_strlen
00000679: 83 C4 04                                              	ADD	ESP,4
0000067C: 8D 4D EC                                              	LEA	ECX,[EBP-20]
0000067F: 89 01                                                 	MOV	[ECX],EAX	; len=strlen(sptr);
00000681: 8D 55 E8                                              	LEA	EDX,[EBP-24]	; if(maxchr && maxchr<len)
00000684: 8B 1A                                                 	MOV	EBX,[EDX]
00000686: 09 DB                                                 	OR	EBX,EBX
                                                                	;JZ	short _p_25
00000688: 74 0D                                                 	JZ	short _p_26	; *
                                                                ;_lib_115:
                                                                	;LEA	EDX,[EBP-24]	; maxchr
                                                                	;MOV	EBX,[EDX]
                                                                	;LEA	ECX,[EBP-20]	; len
                                                                	;MOV	EAX,[ECX]
0000068A: E8 AA F9 FF FF                                        	CALL	__lt
0000068F: 09 C0                                                 	OR	EAX,EAX
00000691: 74 02                                                 	JZ	short _p_25
                                                                ;_lib_114:
                                                                ;_lib_117:
                                                                	;LEA	ECX,[EBP-20]
                                                                	;LEA	EDX,[EBP-24]
                                                                	;MOV	EBX,[EDX]
00000693: 89 19                                                 	MOV	[ECX],EBX	; len=maxchr;
                                                                _p_25:
                                                                	;LEA	ECX,[EBP-20]	; len
00000695: 8B 01                                                 	MOV	EAX,[ECX]
                                                                _p_26: ; *			; if(width>len)
00000697: 8D 55 E4                                              	LEA	EDX,[EBP-28]
0000069A: 8B 1A                                                 	MOV	EBX,[EDX]	; width
0000069C: E8 9F F9 FF FF                                        	CALL	__gt
000006A1: 09 C0                                                 	OR	EAX,EAX
000006A3: 74 08                                                 	JZ	short _p_27	; else
                                                                ;_lib_119:
                                                                	;LEA	EDX,[EBP-28]	; width=width-len;
                                                                	;MOV	EBX,[EDX]
                                                                	;LEA	ECX,[EBP-20]
000006A5: 8B 01                                                 	MOV	EAX,[ECX]	; len
000006A7: 29 C3                                                 	SUB	EBX,EAX
000006A9: 89 1A                                                 	MOV	[EDX],EBX
000006AB: EB 02                                                 	JMP	short _p_28
                                                                _p_27:
                                                                	;LEA	EDX,[EBP-28]	; else width=0;
                                                                	;XOR	EAX,EAX
                                                                	; eax = 0
000006AD: 89 02                                                 	MOV	[EDX],EAX
                                                                _p_28:
000006AF: 8D 5D F8                                              	LEA	EBX,[EBP-8]	; if(!left)
000006B2: 8B 03                                                 	MOV	EAX,[EBX]
000006B4: E8 9C F9 FF FF                                        	CALL	__lneg
000006B9: 09 C0                                                 	OR	EAX,EAX
000006BB: 74 26                                                 	JZ	short _p_30
                                                                _p_29:
                                                                	;LEA	EDX,[EBP-28]	; while(width--)
000006BD: 8B 02                                                 	MOV	EAX,[EDX]
000006BF: FF 0A                                                 	DEC	DWORD [EDX]
000006C1: 09 C0                                                 	OR	EAX,EAX
000006C3: 74 1E                                                 	JZ	short _p_30
                                                                ;_lib_125:
000006C5: 8D 5D F4                                              	LEA	EBX,[EBP-12]	; {OS_fputc(pad,fd);
000006C8: 8B 03                                                 	MOV	EAX,[EBX]
000006CA: 50                                                    	PUSH	EAX
000006CB: 8D 5D 0C                                              	LEA	EBX,[EBP+12]	; fd
000006CE: 8B 03                                                 	MOV	EAX,[EBX]
000006D0: 50                                                    	PUSH	EAX
                                                                	;MOV	CL,2
000006D1: E8 E6 07 00 00                                        	CALL	_OS_fputc
000006D6: 83 C4 08                                              	ADD	ESP,8
000006D9: 8D 5D F0                                              	LEA	EBX,[EBP-16]	; ++cc;}
                                                                	;MOV	EAX,[EBX]
                                                                	;INC	EAX
                                                                	;MOV	[EBX],EAX
000006DC: FF 03                                                 	INC	DWORD [EBX]
000006DE: 8D 55 E4                                              	LEA	EDX,[EBP-28]
000006E1: EB DA                                                 	JMP	short _p_29
                                                                _p_30:
000006E3: 8D 5D EC                                              	LEA	EBX,[EBP-20]	; while(len--)
000006E6: 8B 03                                                 	MOV	EAX,[EBX]
000006E8: 48                                                    	DEC	EAX
000006E9: 89 03                                                 	MOV	[EBX],EAX
000006EB: 40                                                    	INC	EAX
                                                                	;OR	EAX,EAX
000006EC: 74 20                                                 	JZ	short _p_31
                                                                ;_lib_128:
000006EE: 8D 55 DC                                              	LEA	EDX,[EBP-36]	; {OS_fputc(*sptr++,fd);
000006F1: 8B 1A                                                 	MOV	EBX,[EDX]
000006F3: FF 02                                                 	INC	DWORD [EDX]
000006F5: 0F BE 03                                              	MOVSX	EAX,BYTE [EBX]
000006F8: 50                                                    	PUSH	EAX
000006F9: 8D 5D 0C                                              	LEA	EBX,[EBP+12]	; fd (file number)
000006FC: 8B 03                                                 	MOV	EAX,[EBX]
000006FE: 50                                                    	PUSH	EAX
                                                                	;MOV	CL,2
000006FF: E8 B8 07 00 00                                        	CALL	_OS_fputc
00000704: 83 C4 08                                              	ADD	ESP,8
00000707: 8D 5D F0                                              	LEA	EBX,[EBP-16]	; ++cc;}
0000070A: FF 03                                                 	INC	DWORD [EBX]
0000070C: EB D5                                                 	JMP	short _p_30
                                                                _p_31:
0000070E: 8D 5D F8                                              	LEA	EBX,[EBP-8]	; if(left)
00000711: 8B 03                                                 	MOV	EAX,[EBX]
00000713: 09 C0                                                 	OR	EAX,EAX
                                                                	;JZ	short _p_33
00000715: 75 05                                                 	JNZ	short _p_32
                                                                _p_33:
00000717: E9 40 FD FF FF                                        	JMP	_p_1		; while(*ctl)
                                                                _p_32:
0000071C: 8D 5D E4                                              	LEA	EBX,[EBP-28]	; while(width--)
0000071F: 8B 03                                                 	MOV	EAX,[EBX]
00000721: 48                                                    	DEC	EAX
00000722: 89 03                                                 	MOV	[EBX],EAX
00000724: 40                                                    	INC	EAX
                                                                	;OR	EAX,EAX
00000725: 74 F0                                                 	JZ	short _p_33
                                                                ;_lib_133:
00000727: 8D 5D F4                                              	LEA	EBX,[EBP-12]	; {OS_fputc(pad,fd);
0000072A: 8B 03                                                 	MOV	EAX,[EBX]
0000072C: 50                                                    	PUSH	EAX		; pad
0000072D: 8D 5D 0C                                              	LEA	EBX,[EBP+12]
00000730: 8B 03                                                 	MOV	EAX,[EBX]
00000732: 50                                                    	PUSH	EAX		; fd
                                                                	;MOV	CL,2
00000733: E8 84 07 00 00                                        	CALL	_OS_fputc
00000738: 83 C4 08                                              	ADD	ESP,8
0000073B: 8D 5D F0                                              	LEA	EBX,[EBP-16]	; ++cc;}
0000073E: FF 03                                                 	INC	DWORD [EBX]
00000740: EB DA                                                 	JMP	short _p_32
                                                                
                                                                	; /* TRDOS 386 v2 modification */
                                                                	; 03/04/2026
                                                                _fputs:				; fputs(string,fd)
00000742: 55                                                    	PUSH	EBP
00000743: 89 E5                                                 	MOV	EBP,ESP
                                                                _fputs_1:
00000745: 8D 55 08                                              	LEA	EDX,[EBP+8]	; while(*string)
00000748: 8B 1A                                                 	MOV	EBX,[EDX]
0000074A: 0F BE 03                                              	MOVSX	EAX,BYTE [EBX]	; *string (char)
0000074D: 09 C0                                                 	OR	EAX,EAX
0000074F: 74 13                                                 	JZ	short _fputs_2	; char = 0 (ASCIIZ string)
                                                                ;_lib_137:
00000751: 50                                                    	PUSH	EAX
                                                                	;LEA	EDX,[EBP+8]	; OS_fputc(*string++,fd);
                                                                	;MOV	EBX,[EDX]
                                                                	;INC	EBX
                                                                	;MOV	[EAX],EBX
                                                                	;DEC	EBX
00000752: FF 02                                                 	INC	DWORD [EDX]	; *string++
                                                                				; (points to the next char)
                                                                	;MOVSX	EAX,BYTE [EBX]	; char (> 0)
                                                                	;PUSH	EAX
00000754: 8D 5D 0C                                              	LEA	EBX,[EBP+12]
00000757: 8B 03                                                 	MOV	EAX,[EBX]	; fd (-1 -> STDOUT/STDERR)
00000759: 50                                                    	PUSH	EAX
                                                                	;MOV	CL,2
0000075A: E8 5D 07 00 00                                        	CALL	_OS_fputc
0000075F: 83 C4 08                                              	ADD	ESP,8
00000762: EB E1                                                 	JMP	short _fputs_1	; jump to while(*string)
                                                                _fputs_2:
00000764: 5D                                                    	POP	EBP
00000765: C3                                                    	RETN
                                                                
                                                                ;#define ALNUM     1
                                                                ;#define ALPHA     2
                                                                ;#define CNTRL     4
                                                                ;#define DIGIT     8
                                                                ;#define GRAPH    16
                                                                ;#define LOWER    32
                                                                ;#define PRINT    64
                                                                ;#define PUNCT   128
                                                                ;#define BLANK   256
                                                                ;#define UPPER   512
                                                                ;#define XDIGIT 1024
                                                                
                                                                __is:				; int _is[128] =
00000766: 04 00 00 00 04 00 00 00 04 00 00 00 04 00 00 00        DD 004h, 004h, 004h, 004h, 004h, 004h, 004h, 004h
          04 00 00 00 04 00 00 00 04 00 00 00 04 00 00 00       
00000786: 04 00 00 00 04 01 00 00 04 01 00 00 04 01 00 00        DD 004h, 104h, 104h, 104h, 104h, 104h, 004h, 004h
          04 01 00 00 04 01 00 00 04 00 00 00 04 00 00 00       
000007A6: 04 00 00 00 04 00 00 00 04 00 00 00 04 00 00 00        DD 004h, 004h, 004h, 004h, 004h, 004h, 004h, 004h
          04 00 00 00 04 00 00 00 04 00 00 00 04 00 00 00       
000007C6: 04 00 00 00 04 00 00 00 04 00 00 00 04 00 00 00        DD 004h, 004h, 004h, 004h, 004h, 004h, 004h, 004h
          04 00 00 00 04 00 00 00 04 00 00 00 04 00 00 00       
000007E6: 40 01 00 00 D0 00 00 00 D0 00 00 00 D0 00 00 00        DD 140h, 0D0h, 0D0h, 0D0h, 0D0h, 0D0h, 0D0h, 0D0h
          D0 00 00 00 D0 00 00 00 D0 00 00 00 D0 00 00 00       
00000806: D0 00 00 00 D0 00 00 00 D0 00 00 00 D0 00 00 00        DD 0D0h, 0D0h, 0D0h, 0D0h, 0D0h, 0D0h, 0D0h, 0D0h
          D0 00 00 00 D0 00 00 00 D0 00 00 00 D0 00 00 00       
00000826: 59 04 00 00 59 04 00 00 59 04 00 00 59 04 00 00        DD 459h, 459h, 459h, 459h, 459h, 459h, 459h, 459h
          59 04 00 00 59 04 00 00 59 04 00 00 59 04 00 00       
00000846: 59 04 00 00 59 04 00 00 D0 00 00 00 D0 00 00 00        DD 459h, 459h, 0D0h, 0D0h, 0D0h, 0D0h, 0D0h, 0D0h
          D0 00 00 00 D0 00 00 00 D0 00 00 00 D0 00 00 00       
00000866: D0 00 00 00 53 06 00 00 53 06 00 00 53 06 00 00        DD 0D0h, 653h, 653h, 653h, 653h, 653h, 653h, 253h
          53 06 00 00 53 06 00 00 53 06 00 00 53 02 00 00       
00000886: 53 02 00 00 53 02 00 00 53 02 00 00 53 02 00 00        DD 253h, 253h, 253h, 253h, 253h, 253h, 253h, 253h
          53 02 00 00 53 02 00 00 53 02 00 00 53 02 00 00       
000008A6: 53 02 00 00 53 02 00 00 53 02 00 00 53 02 00 00        DD 253h, 253h, 253h, 253h, 253h, 253h, 253h, 253h
          53 02 00 00 53 02 00 00 53 02 00 00 53 02 00 00       
000008C6: 53 02 00 00 53 02 00 00 53 02 00 00 D0 00 00 00        DD 253h, 253h, 253h, 0D0h, 0D0h, 0D0h, 0D0h, 0D0h
          D0 00 00 00 D0 00 00 00 D0 00 00 00 D0 00 00 00       
000008E6: D0 00 00 00 73 04 00 00 73 04 00 00 73 04 00 00        DD 0D0h, 473h, 473h, 473h, 473h, 473h, 473h, 073h
          73 04 00 00 73 04 00 00 73 04 00 00 73 00 00 00       
00000906: 73 00 00 00 73 00 00 00 73 00 00 00 73 00 00 00        DD 073h, 073h, 073h, 073h, 073h, 073h, 073h, 073h
          73 00 00 00 73 00 00 00 73 00 00 00 73 00 00 00       
00000926: 73 00 00 00 73 00 00 00 73 00 00 00 73 00 00 00        DD 073h, 073h, 073h, 073h, 073h, 073h, 073h, 073h
          73 00 00 00 73 00 00 00 73 00 00 00 73 00 00 00       
00000946: 73 00 00 00 73 00 00 00 73 00 00 00 D0 00 00 00        DD 073h, 073h, 073h, 0D0h, 0D0h, 0D0h, 0D0h, 004h
          D0 00 00 00 D0 00 00 00 D0 00 00 00 04 00 00 00       
                                                                
                                                                ; isalnum (c) int c; {return (_is[c] & ALNUM);}
                                                                ; /* 'a'-'z', 'A'-'Z', '0'-'9' */
                                                                
                                                                _isalnum:
00000966: 55                                                    	PUSH	EBP
00000967: 89 E5                                                 	MOV	EBP,ESP
00000969: 8D 5D 08                                              	LEA	EBX,[EBP+8]
0000096C: 8B 03                                                 	MOV	EAX,[EBX]	; int c;
0000096E: BB 66 07 00 00                                        	MOV	EBX,__is
00000973: D1 E0                                                 	SHL	EAX,1
00000975: D1 E0                                                 	SHL	EAX,1
00000977: 01 C3                                                 	ADD	EBX,EAX
00000979: 8B 03                                                 	MOV	EAX,[EBX]
                                                                	;MOV	EBX,1		; ALNUM
                                                                	;AND	EAX,EBX		; return (_is[c] & ALNUM);
0000097B: 83 E0 01                                              	AND	EAX,1		; (bit 0)
0000097E: 5D                                                    	POP	EBP
0000097F: C3                                                    	RETN
                                                                
                                                                ;isalpha (c) int c; {return (_is[c] & ALPHA);}
                                                                ; /* 'a'-'z', 'A'-'Z' */
                                                                
                                                                _isalpha:
00000980: 55                                                    	PUSH	EBP
00000981: 89 E5                                                 	MOV	EBP,ESP
00000983: 8D 5D 08                                              	LEA	EBX,[EBP+8]
00000986: 8B 03                                                 	MOV	EAX,[EBX]	; int c;
00000988: BB 66 07 00 00                                        	MOV	EBX,__is
0000098D: D1 E0                                                 	SHL	EAX,1
0000098F: D1 E0                                                 	SHL	EAX,1
00000991: 01 C3                                                 	ADD	EBX,EAX
00000993: 8B 03                                                 	MOV	EAX,[EBX]
                                                                	;MOV	EBX,2		; ALPHA
                                                                	;AND	EAX,EBX		; return (_is[c] & ALPHA);
00000995: 83 E0 02                                              	AND	EAX,2		; (bit 1)
00000998: 5D                                                    	POP	EBP
00000999: C3                                                    	RETN
                                                                
                                                                ; iscntrl (c) int c; {return (_is[c] & CNTRL);}
                                                                ; /* 0-31, 127 */
                                                                
                                                                _iscntrl:
0000099A: 55                                                    	PUSH	EBP
0000099B: 89 E5                                                 	MOV	EBP,ESP
0000099D: 8D 5D 08                                              	LEA	EBX,[EBP+8]
000009A0: 8B 03                                                 	MOV	EAX,[EBX]	; int c;
000009A2: BB 66 07 00 00                                        	MOV	EBX,__is
000009A7: D1 E0                                                 	SHL	EAX,1
000009A9: D1 E0                                                 	SHL	EAX,1
000009AB: 01 C3                                                 	ADD	EBX,EAX
000009AD: 8B 03                                                 	MOV	EAX,[EBX]
                                                                	;MOV	EBX,4		; CNTRL
                                                                	;AND	EAX,EBX		; return (_is[c] & CNTRL);
000009AF: 83 E0 04                                              	AND	EAX,4		; (bit 2)
000009B2: 5D                                                    	POP	EBP
000009B3: C3                                                    	RETN
                                                                
                                                                ;isdigit (c) int c; {return (_is[c] & DIGIT );}
                                                                ; /* '0'-'9' */
                                                                
                                                                _isdigit:
000009B4: 55                                                    	PUSH	EBP
000009B5: 89 E5                                                 	MOV	EBP,ESP
000009B7: 8D 5D 08                                              	LEA	EBX,[EBP+8]
000009BA: 8B 03                                                 	MOV	EAX,[EBX]	; int c;
000009BC: BB 66 07 00 00                                        	MOV	EBX,__is
000009C1: D1 E0                                                 	SHL	EAX,1
000009C3: D1 E0                                                 	SHL	EAX,1
000009C5: 01 C3                                                 	ADD	EBX,EAX
000009C7: 8B 03                                                 	MOV	EAX,[EBX]
                                                                	;MOV	EBX,8		; DIGIT
                                                                	;AND	EAX,EBX		; return (_is[c] & DIGIT);
000009C9: 83 E0 08                                              	AND	EAX,8		; (bit 3)
000009CC: 5D                                                    	POP	EBP
000009CD: C3                                                    	RETN
                                                                
                                                                ;isgraph (c) int c; {return (_is[c] & GRAPH);}
                                                                ; /* '!'-'~' */
                                                                
                                                                _isgraph:
000009CE: 55                                                    	PUSH	EBP
000009CF: 89 E5                                                 	MOV	EBP,ESP
000009D1: 8D 5D 08                                              	LEA	EBX,[EBP+8]
000009D4: 8B 03                                                 	MOV	EAX,[EBX]	; int c;
000009D6: BB 66 07 00 00                                        	MOV	EBX,__is
000009DB: D1 E0                                                 	SHL	EAX,1
000009DD: D1 E0                                                 	SHL	EAX,1
000009DF: 01 C3                                                 	ADD	EBX,EAX
000009E1: 8B 03                                                 	MOV	EAX,[EBX]
                                                                	;MOV	EBX,16		; GRAPH
                                                                	;AND	EAX,EBX		; return (_is[c] & GRAPH);
000009E3: 83 E0 10                                              	AND	EAX,16		; (bit 4)
000009E6: 5D                                                    	POP	EBP
000009E7: C3                                                    	RETN
                                                                
                                                                ;islower (c) int c; {return (_is[c] & LOWER);}
                                                                ; /* 'a'-'z' */
                                                                
                                                                _islower:
000009E8: 55                                                    	PUSH	EBP
000009E9: 89 E5                                                 	MOV	EBP,ESP
000009EB: 8D 5D 08                                              	LEA	EBX,[EBP+8]
000009EE: 8B 03                                                 	MOV	EAX,[EBX]	; int c;
000009F0: BB 66 07 00 00                                        	MOV	EBX, __is
000009F5: D1 E0                                                 	SHL	EAX,1
000009F7: D1 E0                                                 	SHL	EAX,1
000009F9: 01 C3                                                 	ADD	EBX,EAX
000009FB: 8B 03                                                 	MOV	EAX,[EBX]
                                                                	;MOV	EBX,32		; LOWER
                                                                	;AND	EAX,EBX		; return (_is[c] & LOWER);
000009FD: 83 E0 20                                              	AND	EAX,32		; (bit 5)
00000A00: 5D                                                    	POP	EBP
00000A01: C3                                                    	RETN
                                                                
                                                                ;isprint (c) int c; {return (_is[c] & PRINT);}
                                                                ; /* ' '-'~' */
                                                                
                                                                _isprint:
00000A02: 55                                                    	PUSH	EBP
00000A03: 89 E5                                                 	MOV	EBP,ESP
00000A05: 8D 5D 08                                              	LEA	EBX,[EBP+8]
00000A08: 8B 03                                                 	MOV	EAX,[EBX]	; int c;
00000A0A: BB 66 07 00 00                                        	MOV	EBX, __is
00000A0F: D1 E0                                                 	SHL	EAX,1
00000A11: D1 E0                                                 	SHL	EAX,1
00000A13: 01 C3                                                 	ADD	EBX,EAX
00000A15: 8B 03                                                 	MOV	EAX,[EBX]
                                                                	;MOV	EBX,64		; PRINT
                                                                	;AND	EAX,EBX		; return (_is[c] & PRINT);
00000A17: 83 E0 40                                              	AND	EAX,64		; (bit 6)
00000A1A: 5D                                                    	POP	EBP
00000A1B: C3                                                    	RETN
                                                                
                                                                ;ispunct (c) int c; {return (_is[c] & PUNCT);}
                                                                ; /* !alnum && !cntrl && !space */
                                                                
                                                                _ispunct:
00000A1C: 55                                                    	PUSH	EBP
00000A1D: 89 E5                                                 	MOV	EBP,ESP
00000A1F: 8D 5D 08                                              	LEA	EBX,[EBP+8]
00000A22: 8B 03                                                 	MOV	EAX,[EBX]	; int c;
00000A24: BB 66 07 00 00                                        	MOV	EBX, __is
00000A29: D1 E0                                                 	SHL	EAX,1
00000A2B: D1 E0                                                 	SHL	EAX,1
00000A2D: 01 C3                                                 	ADD	EBX,EAX
00000A2F: 8B 03                                                 	MOV	EAX,[EBX]
                                                                	;MOV	EBX,128		; PUNCT
                                                                	;AND	EAX,EBX		; return (_is[c] & PUNCT);
00000A31: 25 80 00 00 00                                        	AND	EAX,128		; (bit 7)
00000A36: 5D                                                    	POP	EBP
00000A37: C3                                                    	RETN
                                                                
                                                                ;isspace (c) int c; {return (_is[c] & BLANK);}
                                                                ; /* HT, LF, VT, FF, CR, ' ' */
                                                                
                                                                _isspace:
00000A38: 55                                                    	PUSH	EBP
00000A39: 89 E5                                                 	MOV	EBP,ESP
00000A3B: 8D 5D 08                                              	LEA	EBX,[EBP+8]
00000A3E: 8B 03                                                 	MOV	EAX,[EBX]	; int c;
00000A40: BB 66 07 00 00                                        	MOV	EBX, __is
00000A45: D1 E0                                                 	SHL	EAX,1
00000A47: D1 E0                                                 	SHL	EAX,1
00000A49: 01 C3                                                 	ADD	EBX,EAX
00000A4B: 8B 03                                                 	MOV	EAX,[EBX]
                                                                	;MOV	EBX,256		; BLANK
                                                                	;AND	EAX,EBX		; return (_is[c] & BLANK);
00000A4D: 25 00 01 00 00                                        	AND	EAX,256		; (bit 8)
00000A52: 5D                                                    	POP	EBP
00000A53: C3                                                    	RETN
                                                                
                                                                ;isupper (c) int c; {return (_is[c] & UPPER);}
                                                                ; /* 'A'-'Z' */
                                                                
                                                                _isupper:
00000A54: 55                                                    	PUSH	EBP
00000A55: 89 E5                                                 	MOV	EBP,ESP
00000A57: 8D 5D 08                                              	LEA	EBX,[EBP+8]
00000A5A: 8B 03                                                 	MOV	EAX,[EBX]	; int c;
00000A5C: BB 66 07 00 00                                        	MOV	EBX, __is
00000A61: D1 E0                                                 	SHL	EAX,1
00000A63: D1 E0                                                 	SHL	EAX,1
00000A65: 01 C3                                                 	ADD	EBX,EAX
00000A67: 8B 03                                                 	MOV	EAX,[EBX]
                                                                	;MOV	EBX,512		; UPPER
                                                                	;AND	EAX,EBX		; return (_is[c] & UPPER);
00000A69: 25 00 02 00 00                                        	AND	EAX,512		; (bit 9)
00000A6E: 5D                                                    	POP	EBP
00000A6F: C3                                                    	RETN
                                                                
                                                                ;isxdigit(c) int c; {return (_is[c] & XDIGIT);}
                                                                ; /* '0'-'9', 'a'-'f', 'A'-'F' */
                                                                
                                                                _isxdigit:
00000A70: 55                                                    	PUSH	EBP
00000A71: 89 E5                                                 	MOV	EBP,ESP
00000A73: 8D 5D 08                                              	LEA	EBX,[EBP+8]
00000A76: 8B 03                                                 	MOV	EAX,[EBX]	; int c;
00000A78: BB 66 07 00 00                                        	MOV	EBX,__is
00000A7D: D1 E0                                                 	SHL	EAX,1
00000A7F: D1 E0                                                 	SHL	EAX,1
00000A81: 01 C3                                                 	ADD	EBX,EAX
00000A83: 8B 03                                                 	MOV	EAX,[EBX]
                                                                	;MOV	EBX,1024	; XDIGIT
                                                                	;AND	EAX,EBX		; return (_is[c] & XDIGIT);
00000A85: 25 00 04 00 00                                        	AND	EAX,1024	; (bit 10)
00000A8A: 5D                                                    	POP	EBP
00000A8B: C3                                                    	RETN
                                                                
                                                                ; /* itoa(n,s) - Convert n to characters in s */
                                                                
                                                                _itoa:				; itoa(n,s)
00000A8C: 55                                                    	PUSH	EBP		; char *s; int n;
00000A8D: 89 E5                                                 	MOV	EBP,ESP
00000A8F: 83 C4 F8                                              	ADD	ESP,-8		; int sign; char *ptr;
00000A92: 8D 5D 08                                              	LEA	EBX,[EBP+8]
00000A95: 8B 03                                                 	MOV	EAX,[EBX]
00000A97: 8D 5D F8                                              	LEA	EBX,[EBP-8]	; 04/04/2026
00000A9A: 89 03                                                 	MOV	[EBX],EAX	; ptr=s;
00000A9C: 8D 5D 0C                                              	LEA	EBX,[EBP+12]	; if((sign=n)<0) n=-n;
00000A9F: 8B 03                                                 	MOV	EAX,[EBX]	; n
00000AA1: 8D 55 FC                                              	LEA	EDX,[EBP-4]	; sign
00000AA4: 89 02                                                 	MOV	[EDX],EAX	; sign = n
00000AA6: 09 C0                                                 	OR	EAX,EAX
00000AA8: 7D 04                                                 	JNL	short _lib_150
                                                                _lib_151:
                                                                	;LEA	EBX,[EBP+12]	; n=-n;
                                                                	;MOV	EAX,[EBX]
00000AAA: F7 D8                                                 	NEG	EAX
00000AAC: 89 03                                                 	MOV	[EBX],EAX
                                                                _lib_150:
                                                                _lib_154:
                                                                _lib_152:			; do
00000AAE: 8D 5D F8                                              	LEA	EBX,[EBP-8]	; {*ptr++ = n%10+'0';
00000AB1: 8B 03                                                 	MOV	EAX,[EBX]
00000AB3: FF 03                                                 	INC	DwORD [EBX]
00000AB5: 50                                                    	PUSH	EAX
00000AB6: 8D 5D 0C                                              	LEA	EBX,[EBP+12]
00000AB9: 8B 03                                                 	MOV	EAX,[EBX]	; n
00000ABB: B9 0A 00 00 00                                        	MOV	ECX,10
00000AC0: 99                                                    	CDQ
00000AC1: F7 F9                                                 	IDIV	ECX		; n/10
00000AC3: 80 C2 30                                              	ADD	DL,48		; '0'
00000AC6: 59                                                    	POP	ECX
00000AC7: 88 11                                                 	MOV	[ECX],DL
                                                                	; eax = n/10
00000AC9: 89 03                                                 	MOV	[EBX],EAX	; n = n/10
00000ACB: 09 C0                                                 	OR	EAX,EAX		; }while((n=n/10)>0);
00000ACD: 7F DF                                                 	JG	short _lib_154
                                                                _lib_153:
00000ACF: 8D 5D FC                                              	LEA	EBX,[EBP-4]	; if(sign<0)
00000AD2: 8B 03                                                 	MOV	EAX,[EBX]
00000AD4: 8D 55 F8                                              	LEA	EDX,[EBP-8] ;*
00000AD7: 8B 1A                                                 	MOV	EBX,[EDX] ;*
00000AD9: 09 C0                                                 	OR	EAX,EAX
00000ADB: 7D 05                                                 	JNL	short _lib_155
                                                                _lib_156:
                                                                	;LEA	EDX,[EBP-8]	; *ptr++='-';
                                                                	;MOV	EBX,[EDX]
00000ADD: FF 02                                                 	INC	DWORD [EDX]
                                                                	;MOV	EAX,45	; '-'
                                                                	;MOV	[EBX],AL
00000ADF: C6 03 2D                                              	MOV	BYTE [EBX],45
                                                                _lib_155:
                                                                	;LEA	EDX,[EBP-8] ;*	; *ptr='\0';
                                                                	;MOV	EBX,[EDX] ;*
                                                                	;XOR	EAX,EAX
                                                                	;MOV	[EBX],AL
00000AE2: C6 03 00                                              	MOV	BYTE [EBX],0
00000AE5: 8D 5D 08                                              	LEA	EBX,[EBP+8]	; reverse(s);
00000AE8: 8B 03                                                 	MOV	EAX,[EBX]
00000AEA: 50                                                    	PUSH	EAX
                                                                	;MOV	CL,1
00000AEB: E8 C1 F5 FF FF                                        	CALL	_reverse
                                                                	;ADD	ESP,4
00000AF0: 89 EC                                                 	MOV	ESP,EBP
00000AF2: 5D                                                    	POP	EBP
00000AF3: C3                                                    	RETN
                                                                
                                                                ; /*
                                                                ; ** itoab(n,s,b) - Convert "unsigned" n to characters
                                                                ; **		    in s using base b.
                                                                ; ** 	NOTE: This is a non-standard function.
                                                                ; */
                                                                
                                                                _itoab:				; itoab(n,s,b)
00000AF4: 55                                                    	PUSH	EBP		; int n; char *s; int b;
00000AF5: 89 E5                                                 	MOV	EBP,ESP
00000AF7: 83 C4 F8                                              	ADD	ESP,-8		; char *ptr; int lowbit;
00000AFA: 8D 5D 0C                                              	LEA	EBX,[EBP+12]	; *s
00000AFD: 8B 03                                                 	MOV	EAX,[EBX]
00000AFF: 8D 5D FC                                              	LEA	EBX,[EBP-4]	; ptr
00000B02: 89 03                                                 	MOV	[EBX],EAX	; ptr=s;
00000B04: 8D 5D 08                                              	LEA	EBX,[EBP+8]	; b >>= 1;
00000B07: 8B 03                                                 	MOV	EAX,[EBX]
00000B09: D1 F8                                                 	SAR	EAX,1
00000B0B: 89 03                                                 	MOV	[EBX],EAX
                                                                _lib_163:
                                                                _lib_158:			; do
00000B0D: 8D 55 F8                                              	LEA	EDX,[EBP-8]	; {lowbit=n&1;
00000B10: 8D 5D 10                                              	LEA	EBX,[EBP+16]
00000B13: 8B 03                                                 	MOV	EAX,[EBX]	; n
00000B15: 83 E0 01                                              	AND	EAX,1
00000B18: 89 02                                                 	MOV	[EDX],EAX	; n&1
                                                                	;LEA	EBX,[EBP+16]	; n=(n>>1)&32767;
00000B1A: 8B 03                                                 	MOV	EAX,[EBX]
00000B1C: D1 F8                                                 	SAR	EAX,1
00000B1E: 25 FF 7F 00 00                                        	AND	EAX,32767
00000B23: 89 03                                                 	MOV	[EBX],EAX
                                                                	;LEA	EBX,[EBP-4]	; *ptr=((n%b)<<1)+lowbit;
                                                                	;MOV	EAX,[EBX]	; *ptr
                                                                	;PUSH	EAX
                                                                	;LEA	EBX,[EBP+16]
00000B25: 8B 03                                                 	MOV	EAX,[EBX]	; n
00000B27: 8D 55 08                                              	LEA	EDX,[EBP+8]	; b
00000B2A: 8B 0A                                                 	MOV	ECX,[EDX]
00000B2C: 99                                                    	CDQ
00000B2D: F7 F9                                                 	IDIV	ECX		; n/b
                                                                	; edx = mod n/b
00000B2F: D1 E2                                                 	SAL	EDX,1
00000B31: 8D 5D F8                                              	LEA	EBX,[EBP-8]
00000B34: 8B 03                                                 	MOV	EAX,[EBX]	; lowbit
00000B36: 01 D0                                                 	ADD	EAX,EDX
                                                                	;POP	EDX
00000B38: 8D 4D FC                                              	LEA	ECX,[EBP-4]	; *ptr=((n%b)<<1)+lowbit;
00000B3B: 8B 11                                                 	MOV	EDX,[ECX]	; ptr
00000B3D: 88 02                                                 	MOV	[EDX],AL
                                                                	;LEA	ECX,[EBP-4]	; if(*ptr<10)
                                                                	;MOV	EDX,[ECX]
00000B3F: 0F BE 1A                                              	MOVSX	EBX,BYTE [EDX]
00000B42: B8 0A 00 00 00                                        	MOV	EAX,10
00000B47: E8 ED F4 FF FF                                        	CALL	__lt
00000B4C: 09 C0                                                 	OR	EAX,EAX
00000B4E: 74 0A                                                 	JZ	short _lib_160	; else
                                                                _lib_161:
                                                                	;LEA	ECX,[EBP-4]	; *ptr+='0';
                                                                	;MOV	EDX,[ECX]
00000B50: 0F BE 02                                              	MOVSX	EAX,BYTE [EDX]
00000B53: 83 C0 30                                              	ADD	EAX,48	; '0'
00000B56: 88 02                                                 	MOV	[EDX],AL
00000B58: EB 08                                                 	JMP	short _lib_162
                                                                _lib_160:			; hex. character (A..F)
                                                                	;LEA	ECX,[EBP-4]	; *ptr+=55;
                                                                	;MOV	EDX,[ECX]
00000B5A: 0F BE 02                                              	MOVSX	EAX,BYTE [EDX]
00000B5D: 83 C0 37                                              	ADD	EAX,55	; (skip chars between '9' and 'A')
00000B60: 88 02                                                 	MOV	[EDX],AL
                                                                _lib_162:
00000B62: 8D 5D FC                                              	LEA	EBX,[EBP-4]	; ++ptr;
                                                                	;MOV	EAX,[EBX]
                                                                	;INC	EAX
                                                                	;MOV	[EBX],EAX
00000B65: FF 03                                                 	INC	DWORD [EBX]
00000B67: 8D 5D 10                                              	LEA	EBX,[EBP+16]	; }while(n/=b);
00000B6A: 8B 03                                                 	MOV	EAX,[EBX]	; n
00000B6C: 8D 55 08                                              	LEA	EDX,[EBP+8]	; b
00000B6F: 8B 0A                                                 	MOV	ECX,[EDX]
00000B71: 99                                                    	CDQ
00000B72: F7 F9                                                 	IDIV	ECX		; n/b
00000B74: 89 03                                                 	MOV	[EBX],EAX	; n = n/b
00000B76: 09 C0                                                 	OR	EAX,EAX
00000B78: 75 93                                                 	JNZ	short _lib_163	; do..while
                                                                _lib_159:
00000B7A: 8D 45 FC                                              	LEA	EAX,[EBP-4]	; *ptr=0;
00000B7D: 8B 18                                                 	MOV	EBX,[EAX]
                                                                	;XOR	EAX,EAX	; 0
                                                                	;MOV	[EBX],AL
00000B7F: C6 03 00                                              	MOV	BYTE [EBX],0
00000B82: 8D 5D 0C                                              	LEA	EBX,[EBP+12]	; s
00000B85: 8B 03                                                 	MOV	EAX,[EBX]
00000B87: 50                                                    	PUSH	EAX
                                                                	;MOV	CL,1
00000B88: E8 24 F5 FF FF                                        	CALL	_reverse	; reverse(s);
                                                                	;ADD	ESP,4
00000B8D: 89 EC                                                 	MOV	ESP,EBP
00000B8F: 5D                                                    	POP	EBP
00000B90: C3                                                    	RETN
                                                                
                                                                ;/*
                                                                ;** itod -- convert nbr to signed decimal string of
                                                                ;**	    width sz right adjusted, blank filled;
                                                                ;**	    returns str
                                                                ;**
                                                                ;**	if sz > 0 terminate with null byte
                                                                ;**	if sz = 0 find end of string
                                                                ;**	if sz < 0 use last byte for data
                                                                ;*/
                                                                
                                                                _itod:				; itod(nbr,str,sz)
00000B91: 55                                                    	PUSH	EBP	; int nbr; char str[]; int sz;
00000B92: 89 E5                                                 	MOV	EBP,ESP
00000B94: 83 C4 FC                                              	ADD	ESP,-4		; char sgn;
00000B97: 8D 55 10                                              	LEA	EDX,[EBP+16]	; if(nbr<0)
00000B9A: 8B 02                                                 	MOV	EAX,[EDX]
00000B9C: 8D 5D FC                                              	LEA	EBX,[EBP-4]	; sgn
00000B9F: 09 C0                                                 	OR	EAX,EAX
00000BA1: 7D 0B                                                 	JNL	short _lib_165	; else sgn=' ';
                                                                _lib_166:
                                                                	;LEA	EDX,[EBP+16]	; {nbr=-nbr; sgn='-';}
                                                                	;MOV	EAX,[EDX]
00000BA3: F7 D8                                                 	NEG	EAX
00000BA5: 89 02                                                 	MOV	[EDX],EAX
                                                                	;LEA	EBX,[EBP-4]	; sgn
00000BA7: B8 2D 00 00 00                                        	MOV	EAX,45	; '-'
                                                                	;MOV	[EBX],AL
                                                                	;MOV	BYTE [EBX],45
00000BAC: EB 05                                                 	JMP	short _lib_167
                                                                _lib_165:
                                                                	;LEA	EBX,[EBP-4]
00000BAE: B8 20 00 00 00                                        	MOV	EAX,32
                                                                _lib_167:
00000BB3: 88 03                                                 	MOV	[EBX],AL
                                                                ;_lib_167:
00000BB5: 8D 5D 08                                              	LEA	EBX,[EBP+8]	; if(sz>0)
00000BB8: 8B 03                                                 	MOV	EAX,[EBX]
00000BBA: 8D 55 0C                                              	LEA	EDX,[EBP+12] ;*	; str[--sz]=NULL;
00000BBD: 8B 0A                                                 	MOV	ECX,[EDX] ;*	; str[0] address
00000BBF: 09 C0                                                 	OR	EAX,EAX
00000BC1: 7E 0A                                                 	JNG	short _lib_168	; else
                                                                _lib_169:
                                                                	;LEA	EDX,[EBP+12] ;*	; str[--sz]=NULL;
                                                                	;MOV	ECX,[EDX] ;*	; str[0] address
                                                                	;LEA	EBX,[EBP+8]
                                                                	;MOV	EAX,[EBX]
00000BC3: 48                                                    	DEC	EAX		; --sz
00000BC4: 89 03                                                 	MOV	[EBX],EAX
00000BC6: 01 C1                                                 	ADD	ECX,EAX		; str[sz]
00000BC8: C6 01 00                                              	MOV	BYTE [ECX],0
00000BCB: EB 1D                                                 	JMP	short _lib_170
                                                                _lib_168:			; else if(sz<0)
                                                                	;LEA	EBX,[EBP+8]
                                                                	;MOV	EAX,[EBX]
                                                                	; eax = sz
00000BCD: 09 C0                                                 	OR	EAX,EAX
00000BCF: 7D 0D                                                 	JNL	short _lib_171	; else
                                                                _lib_172:
                                                                	;LEA	EBX,[EBP+8]	; sz=-sz;
                                                                	;MOV	EAX,[EBX]
00000BD1: F7 D8                                                 	NEG	EAX
00000BD3: 89 03                                                 	MOV	[EBX],EAX
00000BD5: EB 13                                                 	JMP	short _lib_173
                                                                _lib_174:			; else
00000BD7: 8D 55 0C                                              	LEA	EDX,[EBP+12] ;*	; while(str[sz]!=NULL)
00000BDA: 8B 0A                                                 	MOV	ECX,[EDX] ;*
                                                                	;LEA	EBX,[EBP+8]
                                                                	;MOV	EAX,[EBX]
00000BDC: 01 C1                                                 	ADD	ECX,EAX		; addr str[0]+sz
                                                                _lib_171:	; (eax = 0)
00000BDE: 0F BE 11                                              	MOVSX	EDX,BYTE [ECX]	; str[sz]
00000BE1: 09 D2                                                 	OR	EDX,EDX
00000BE3: 74 05                                                 	JZ	short _lib_175	; = NULL
                                                                _lib_176:	; != NULL
                                                                	;LEA	EBX,[EBP+8]	; ++sz;
                                                                	;MOV	EAX,[EBX]
00000BE5: 40                                                    	INC	EAX
00000BE6: 89 03                                                 	MOV	[EBX],EAX
00000BE8: EB ED                                                 	JMP	short _lib_174	; while
                                                                _lib_175:
                                                                _lib_173:
                                                                _lib_170:
                                                                _lib_180:
                                                                _lib_177:			; while(sz)
                                                                	;LEA	EBX,[EBP+8]
                                                                	;MOV	EAX,[EBX]
                                                                	; eax = sz
00000BEA: 09 C0                                                 	OR	EAX,EAX
00000BEC: 74 24                                                 	JZ	short _lib_178
                                                                _lib_179:			; {str[--sz]=(nbr%10+'0');
                                                                	;LEA	EBX,[EBP+8]
                                                                	;MOV	EAX,[EBX]
                                                                	; eax = sz 
00000BEE: 48                                                    	DEC	EAX		; --sz
00000BEF: 89 03                                                 	MOV	[EBX],EAX
00000BF1: 8D 55 0C                                              	LEA	EDX,[EBP+12]	; str[0]
00000BF4: 8B 1A                                                 	MOV	EBX,[EDX]
00000BF6: 01 C3                                                 	ADD	EBX,EAX		; str[sz]
                                                                
00000BF8: 8D 55 10                                              	LEA	EDX,[EBP+16]	; nbr address
00000BFB: 8B 02                                                 	MOV	EAX,[EDX]	; nbr
00000BFD: 52                                                    	PUSH	EDX ; *
00000BFE: B9 0A 00 00 00                                        	MOV	ECX,10
00000C03: 99                                                    	CDQ
00000C04: F7 F9                                                 	IDIV	ECX		; nbr/10
                                                                	; edx = mod nbr/10
                                                                	;ADD	EDX,48	; '0'
00000C06: 80 C2 30                                              	ADD	DL,48
00000C09: 88 13                                                 	MOV	[EBX],DL	; = (nbr%10+'0');
                                                                	;LEA	EDX,[EBP+16]
                                                                	;MOV	EAX,[EDX]
00000C0B: 5B                                                    	POP	EBX ; *
                                                                	;;MOV	ECX,10
                                                                	;CDQ
                                                                	;IDIV	ECX
                                                                	; eax = int nbr/10
                                                                				; if((nbr=nbr/10)==0)
00000C0C: 89 03                                                 	MOV	[EBX],EAX	; nbr = nbr/10
00000C0E: 09 C0                                                 	OR	EAX,EAX
00000C10: 75 D8                                                 	JNZ	short _lib_180	; while
                                                                _lib_181:			; break;
                                                                _lib_178:
00000C12: 8D 5D 08                                              	LEA	EBX,[EBP+8]	; if(sz) str[--sz]=sgn;
00000C15: 8B 03                                                 	MOV	EAX,[EBX]
00000C17: 8D 55 0C                                              	LEA	EDX,[EBP+12] ;*
00000C1A: 09 C0                                                 	OR	EAX,EAX
                                                                	;JZ	short _lib_182
00000C1C: 75 06                                                 	JNZ	short _lib_183
                                                                _lib_185:
                                                                	;LEA	EDX,[EBP+12] ;*
00000C1E: 8B 02                                                 	MOV	EAX,[EDX]
00000C20: 89 EC                                                 	MOV	ESP,EBP
00000C22: 5D                                                    	POP	EBP
00000C23: C3                                                    	RETN
                                                                _lib_183:
                                                                	;LEA	EDX,[EBP+12] ;*	; str address
00000C24: 8B 0A                                                 	MOV	ECX,[EDX]	; str[0]
                                                                	;LEA	EBX,[EBP+8]
                                                                	;MOV	EAX,[EBX]	; sz
00000C26: 48                                                    	DEC	EAX		; --sz
00000C27: 89 03                                                 	MOV	[EBX],EAX
00000C29: 01 C1                                                 	ADD	ECX,EAX
00000C2B: 8D 5D FC                                              	LEA	EBX,[EBP-4]
                                                                	;MOVSX	EAX,BYTE [EBX]	; sgn
00000C2E: 8A 03                                                 	MOV	AL,[EBX]
00000C30: 88 01                                                 	MOV	[ECX],AL	; str[--sz]=sgn;
                                                                ;_lib_184:
00000C32: 8D 5D 08                                              	LEA	EBX,[EBP+8]	; while(sz>0)
00000C35: 8B 03                                                 	MOV	EAX,[EBX]
                                                                _lib_184:
                                                                _lib_182:
00000C37: 09 C0                                                 	OR	EAX,EAX
00000C39: 7E E3                                                 	JNG	short _lib_185
                                                                _lib_186:			; str[--sz]=' ';
                                                                	;LEA	EDX,[EBP+12] ;*
00000C3B: 8B 0A                                                 	MOV	ECX,[EDX]
                                                                	;LEA	EBX,[EBP+8]
                                                                	;MOV	EAX,[EBX]
00000C3D: 48                                                    	DEC	EAX		; --sz
00000C3E: 89 03                                                 	MOV	[EBX],EAX	; sz
00000C40: 01 C1                                                 	ADD	ECX,EAX
00000C42: C6 01 20                                              	MOV	BYTE [ECX],32	; space
00000C45: EB F0                                                 	JMP	short _lib_184
                                                                
                                                                ;/*
                                                                ;** itoo -- converts nbr to octal string of
                                                                ;**	    length sz right adjusted and
                                                                ;**	    blank filled, returns str
                                                                ;**
                                                                ;**	if sz > 0 terminate with null byte
                                                                ;**	if sz = 0 find end of string
                                                                ;**	if sz < 0 use last byte for data
                                                                ;*/
                                                                
                                                                _itoo:				; itoo(nbr,str,sz)
00000C47: 55                                                    	PUSH	EBP	; int nbr; char str[]; int sz;
00000C48: 89 E5                                                 	MOV	EBP,ESP
00000C4A: 83 C4 FC                                              	ADD	ESP,-4		; int digit;
00000C4D: 8D 5D 08                                              	LEA	EBX,[EBP+8]	; if(sz>0)
00000C50: 8B 03                                                 	MOV	EAX,[EBX]
00000C52: 8D 55 0C                                              	LEA	EDX,[EBP+12] ;*
00000C55: 8B 0A                                                 	MOV	ECX,[EDX] ;*
00000C57: 09 C0                                                 	OR	EAX,EAX
00000C59: 7F 08                                                 	JG	short _lib_189
00000C5B: 74 14                                                 	JE	short _lib_191	; JNL (eax=0)
                                                                _lib_188:
                                                                _lib_192:	; JL
                                                                	;LEA	EBX,[EBP+8]	; else if(sz<0)
                                                                	;MOV	EAX,[EBX]	; sz=-sz;
00000C5D: F7 D8                                                 	NEG	EAX
00000C5F: 89 03                                                 	MOV	[EBX],EAX
00000C61: EB 22                                                 	JMP	short _lib_193
                                                                _lib_189:
                                                                	;LEA	EDX,[EBP+12] ;*	; str[--sz]=0;
                                                                	;MOV	ECX,[EDX] ;*
                                                                	;LEA	EBX,[EBP+8]
                                                                	;MOV	EAX,[EBX]
00000C63: 48                                                    	DEC	EAX
00000C64: 89 03                                                 	MOV	[EBX],EAX
00000C66: 01 C1                                                 	ADD	ECX,EAX
                                                                	;XOR	EAX,EAX
                                                                	;MOV	[ECX],AL
00000C68: C6 01 00                                              	MOV	BYTE [ECX],0
00000C6B: EB 14                                                 	JMP	short _lib_190
                                                                ;_lib_191:			; else
                                                                _lib_194:			; while(str[sz]!=0)
                                                                	;LEA	EDX,[EBP+12] ;*
00000C6D: 8B 0A                                                 	MOV	ECX,[EDX] ;*
                                                                	;LEA	EBX,[EBP+8]
                                                                	;MOV	EAX,[EBX]
                                                                	; eax = sz
                                                                	; ecx = str[0]
00000C6F: 01 C1                                                 	ADD	ECX,EAX
                                                                _lib_191: ; (eax = 0)
00000C71: 0F BE 01                                              	MOVSX	EAX,BYTE [ECX]	; str[sz]
00000C74: 09 C0                                                 	OR	EAX,EAX
00000C76: 74 07                                                 	JZ	short _lib_195
                                                                _lib_196:
                                                                	;LEA	EBX,[EBP+8]	; ++sz;
00000C78: 8B 03                                                 	MOV	EAX,[EBX]
00000C7A: 40                                                    	INC	EAX
00000C7B: 89 03                                                 	MOV	[EBX],EAX
00000C7D: EB EE                                                 	JMP	short _lib_194
                                                                _lib_195:
                                                                ;_lib_193:
                                                                ;_lib_190:
                                                                _lib_200:
                                                                _lib_197:			; while(sz)
                                                                	;LEA	EBX,[EBP+8]
00000C7F: 8B 03                                                 	MOV	EAX,[EBX]
                                                                _lib_190:
00000C81: 09 C0                                                 	OR	EAX,EAX
00000C83: 74 3D                                                 	JZ	short _lib_198
                                                                _lib_193:
                                                                _lib_199:
00000C85: 8D 4D FC                                              	LEA	ECX,[EBP-4]	; {digit=nbr&7;
00000C88: 8D 5D 10                                              	LEA	EBX,[EBP+16]
00000C8B: 8B 03                                                 	MOV	EAX,[EBX]
00000C8D: 83 E0 07                                              	AND	EAX,7
00000C90: 89 01                                                 	MOV	[ECX],EAX
                                                                	;LEA	EBX,[EBP+16]
00000C92: 8B 03                                                 	MOV	EAX,[EBX]	; nbr=(nbr>>3)&8191;
                                                                	;MOV	CL,3
                                                                	;SAR	EAX,CL
00000C94: C1 F8 03                                              	SAR	EAX,3
00000C97: 25 FF 1F 00 00                                        	AND	EAX,8191
00000C9C: 89 03                                                 	MOV	[EBX],EAX
                                                                	;LEA	EDX,[EBP+12]	; str[--sz]=digit+48;
00000C9E: 8B 0A                                                 	MOV	ECX,[EDX]	; str[0]
00000CA0: 8D 5D 08                                              	LEA	EBX,[EBP+8]
00000CA3: 8B 03                                                 	MOV	EAX,[EBX]	; sz
00000CA5: 48                                                    	DEC	EAX		; --sz
00000CA6: 89 03                                                 	MOV	[EBX],EAX
00000CA8: 01 C1                                                 	ADD	ECX,EAX		; str[sz]
00000CAA: 8D 55 FC                                              	LEA	EDX,[EBP-4]	; digit
00000CAD: 8B 02                                                 	MOV	EAX,[EDX]
                                                                	;ADD	EAX,48	; '0'
00000CAF: 04 30                                                 	ADD	AL,48		; digit+48
00000CB1: 88 01                                                 	MOV	[ECX],AL
00000CB3: 8D 4D 10                                              	LEA	ECX,[EBP+16]	; if(nbr==0)
00000CB6: 8B 01                                                 	MOV	EAX,[ECX]
00000CB8: 09 C0                                                 	OR	EAX,EAX
00000CBA: 75 C3                                                 	JNZ	short _lib_200	; while
                                                                _lib_201:
                                                                ;_lib_198:
                                                                ;_lib_202:			; break;
                                                                	;LEA	EBX,[EBP+8]	; while(sz>0)
00000CBC: 8B 03                                                 	MOV	EAX,[EBX]
                                                                _lib_202:
00000CBE: 09 C0                                                 	OR	EAX,EAX
00000CC0: 75 09                                                 	JNZ	short _lib_204
                                                                	;JMP	short _lib_203
                                                                _lib_198: ; (eax = 0)
                                                                _lib_203:
00000CC2: 8D 5D 0C                                              	LEA	EBX,[EBP+12]	; return str;
00000CC5: 8B 03                                                 	MOV	EAX,[EBX]
00000CC7: 89 EC                                                 	MOV	ESP,EBP
00000CC9: 5D                                                    	POP	EBP
00000CCA: C3                                                    	RETN
                                                                _lib_204:			; str[--sz]=' ';
00000CCB: 8D 55 0C                                              	LEA	EDX,[EBP+12]	; str address
00000CCE: 8B 0A                                                 	MOV	ECX,[EDX]	; str[0]
00000CD0: 8D 5D 08                                              	LEA	EBX,[EBP+8]	; sz address
00000CD3: 8B 03                                                 	MOV	EAX,[EBX]
00000CD5: 48                                                    	DEC	EAX		; --sz
00000CD6: 89 03                                                 	MOV	[EBX],EAX	; sz
00000CD8: 01 C1                                                 	ADD	ECX,EAX		; str[sz]
00000CDA: C6 01 20                                              	MOV	BYTE [ECX],32	; space
00000CDD: EB DF                                                 	JMP	short _lib_202	; while
                                                                
                                                                ;/*
                                                                ;** itou -- convert nbr to unsigned decimal string
                                                                ;**	    of width sz right adjusted,
                                                                ;**	    blank filled; returns str
                                                                ;**
                                                                ;**	if sz > 0 terminate with null byte
                                                                ;**	if sz = 0 find end of string
                                                                ;**	if sz < 0 use last byte for data
                                                                ;*/
                                                                
                                                                _itou:				; itou(nbr,str,sz)
00000CDF: 55                                                    	PUSH	EBP	; int nbr; char str[]; int sz;
00000CE0: 89 E5                                                 	MOV	EBP,ESP
00000CE2: 83 C4 FC                                              	ADD	ESP,-4		; int lowbit;
00000CE5: 8D 5D 08                                              	LEA	EBX,[EBP+8]
00000CE8: 8B 03                                                 	MOV	EAX,[EBX]	; if(sz>0)
00000CEA: 8D 55 0C                                              	LEA	EDX,[EBP+12] ;*
00000CED: 8B 0A                                                 	MOV	ECX,[EDX] ;*	; str[0] address
00000CEF: 09 C0                                                 	OR	EAX,EAX
                                                                	;JG	short _lib_207
                                                                	;JMP	short _lib_206
                                                                	;JNG	short _lib_206	; else
00000CF1: 7F 08                                                 	JG	short _lib_207
00000CF3: 74 14                                                 	JZ	short _lib_209	; JNL (eax=0)
                                                                ;_lib_206:
                                                                	;LEA	EBX,[EBP+8]
                                                                	;MOV	EAX,[EBX]
                                                                	;OR	EAX,EAX
                                                                	;JNL	short _lib_209	; else
                                                                _lib_210:	; JL
                                                                	;LEA	EBX,[EBP+8]	; sz=-sz;
                                                                	;MOV	EAX,[EBX]
00000CF5: F7 D8                                                 	NEG	EAX
00000CF7: 89 03                                                 	MOV	[EBX],EAX
00000CF9: EB 22                                                 	JMP	short _lib_211
                                                                _lib_207:
                                                                	;LEA	EDX,[EBP+12] ;*	; str[--sz]=NULL;
                                                                	;MOV	ECX,[EDX] ;*
                                                                	;LEA	EBX,[EBP+8]
                                                                	;MOV	EAX,[EBX]
00000CFB: 48                                                    	DEC	EAX
00000CFC: 89 03                                                 	MOV	[EBX],EAX
00000CFE: 01 C1                                                 	ADD	ECX,EAX
                                                                	;XOR	EAX,EAX
                                                                	;MOV	[ECX],AL
00000D00: C6 01 00                                              	MOV	BYTE [ECX],0
00000D03: EB 14                                                 	JMP	short _lib_208
                                                                ;_lib_209: ; (eax = sz = 0)	; else
                                                                _lib_212:			; while(str[sz]!=NULL)
                                                                	;LEA	EDX,[EBP+12] ;*
00000D05: 8B 0A                                                 	MOV	ECX,[EDX] ;*	; str[0] address
                                                                	;LEA	EBX,[EBP+8]
                                                                	;MOV	EAX,[EBX]
                                                                	; eax = sz
                                                                	; ecx = str[0]
00000D07: 01 C1                                                 	ADD	ECX,EAX
                                                                _lib_209: ; (eax = 0)
00000D09: 0F BE 01                                              	MOVSX	EAX,BYTE [ECX]	; str[sz] value
00000D0C: 09 C0                                                 	OR	EAX,EAX
00000D0E: 74 07                                                 	JZ	short _lib_213
                                                                _lib_214:
                                                                	;LEA	EBX,[EBP+8]	; ++sz;
00000D10: 8B 03                                                 	MOV	EAX,[EBX]
00000D12: 40                                                    	INC	EAX
00000D13: 89 03                                                 	MOV	[EBX],EAX
00000D15: EB EE                                                 	JMP	short _lib_212
                                                                _lib_213:
                                                                ;_lib_211:
                                                                ;_lib_208:
                                                                _lib_215:
                                                                _lib_218:			; while(sz)
                                                                	;LEA	EBX,[EBP+8] ; *
00000D17: 8B 03                                                 	MOV	EAX,[EBX]
                                                                _lib_208:
00000D19: 09 C0                                                 	OR	EAX,EAX
00000D1B: 74 54                                                 	JZ	short _lib_216
                                                                _lib_211:
                                                                _lib_217:			; {lowbit=nbr&1;
00000D1D: 8D 55 FC                                              	LEA	EDX,[EBP-4]	; lowbit
00000D20: 8D 4D 10                                              	LEA	ECX,[EBP+16]
00000D23: 8B 01                                                 	MOV	EAX,[ECX]	; nbr
00000D25: 83 E0 01                                              	AND	EAX,1
00000D28: 89 02                                                 	MOV	[EDX],EAX
                                                                	;LEA	ECX,[EBP+16]	; nbr=(nbr>>1)&32767;
00000D2A: 8B 01                                                 	MOV	EAX,[ECX]
00000D2C: D1 F8                                                 	SAR	EAX,1
00000D2E: 25 FF 7F 00 00                                        	AND	EAX,32767
00000D33: 89 01                                                 	MOV	[ECX],EAX
                                                                		; str[--sz]=((nbr%5)<<1)+lowbit+'0';
00000D35: 8D 55 0C                                              	LEA	EDX,[EBP+12]	; str
00000D38: 8B 0A                                                 	MOV	ECX,[EDX]	; str[0]
00000D3A: 8D 5D 08                                              	LEA	EBX,[EBP+8]	; sz address
00000D3D: 8B 03                                                 	MOV	EAX,[EBX]	; sz value
00000D3F: 48                                                    	DEC	EAX		; --sz
00000D40: 89 03                                                 	MOV	[EBX],EAX	; sz = sz-1
00000D42: 01 C1                                                 	ADD	ECX,EAX		; str[sz] address
00000D44: 51                                                    	PUSH	ECX ; ***
00000D45: 8D 5D 10                                              	LEA	EBX,[EBP+16]
00000D48: 8B 03                                                 	MOV	EAX,[EBX]	; ((nbr%5)<<1)
00000D4A: B9 05 00 00 00                                        	MOV	ECX,5
00000D4F: 99                                                    	CDQ
00000D50: F7 F9                                                 	IDIV	ECX
00000D52: 89 03                                                 	MOV	[EBX],EAX ; **	; nbr = nbr/5
00000D54: D1 E2                                                 	SAL	EDX,1		; <<1
00000D56: 8D 4D FC                                              	LEA	ECX,[EBP-4]
00000D59: 8B 01                                                 	MOV	EAX,[ECX]
00000D5B: 01 D0                                                 	ADD	EAX,EDX		; +lowbit+'0';
                                                                	;ADD	EAX,48	; '0'
00000D5D: 04 30                                                 	ADD	AL,48
00000D5F: 59                                                    	POP	ECX ; ***
00000D60: 88 01                                                 	MOV	[ECX],AL	; str[sz] =
                                                                		; if((nbr=nbr/5)==0) break;
00000D62: 8B 03                                                 	MOV	EAX,[EBX] ; **	; nbr
00000D64: 8D 5D 08                                              	LEA	EBX,[EBP+8] ; *
00000D67: 09 C0                                                 	OR	EAX,EAX
00000D69: 75 AC                                                 	JNZ	short _lib_218	; nbr <> 0
                                                                _lib_219:			; nbr = 0
                                                                ;_lib_216:
                                                                _lib_220:
                                                                	;LEA	EBX,[EBP+8]	; while(sz)
00000D6B: 8B 03                                                 	MOV	EAX,[EBX]
00000D6D: 09 C0                                                 	OR	EAX,EAX
                                                                	;JE	short _lib_221
00000D6F: 75 09                                                 	JNE	short _lib_222
                                                                _lib_221:
                                                                _lib_216:			; return str;
00000D71: 8D 5D 0C                                              	LEA	EBX,[EBP+12]
00000D74: 8B 03                                                 	MOV	EAX,[EBX]
00000D76: 89 EC                                                 	MOV	ESP,EBP
00000D78: 5D                                                    	POP	EBP
00000D79: C3                                                    	RETN
                                                                _lib_222:			; str[--sz]=' ';
00000D7A: 8D 55 0C                                              	LEA	EDX,[EBP+12]
00000D7D: 8B 0A                                                 	MOV	ECX,[EDX]	; str[0]
                                                                	;LEA	EBX,[EBP+8]
                                                                	;MOV	EAX,[EBX]
00000D7F: 48                                                    	DEC	EAX
00000D80: 89 03                                                 	MOV	[EBX],EAX	; sz = sz-1
00000D82: 01 C1                                                 	ADD	ECX,EAX
                                                                	;MOV	EAX,32
                                                                	;MOV	[ECX],AL	; str[sz] =
00000D84: C6 01 20                                              	MOV	BYTE [ECX],32	; space
00000D87: EB E2                                                 	JMP	short _lib_220
                                                                
                                                                ;/*
                                                                ;** itox -- converts nbr to hex string of
                                                                ;**	    length sz right adjusted and
                                                                ;**	    blank filled, returns str
                                                                ;**
                                                                ;**	if sz > 0 terminate with null byte
                                                                ;**	if sz = 0 find end of string
                                                                ;**	if sz < 0 use last byte for data
                                                                ;*/
                                                                
                                                                _itox:				; itox(nbr,str,sz)
00000D89: 55                                                    	PUSH	EBP	; int nbr; char str[]; int sz;
00000D8A: 89 E5                                                 	MOV	EBP,ESP
00000D8C: 83 C4 F8                                              	ADD	ESP,-8		; int digit,offset;
00000D8F: 8D 5D 08                                              	LEA	EBX,[EBP+8]	; if(sz>0) str[--sz]=0;
00000D92: 8B 03                                                 	MOV	EAX,[EBX]
00000D94: 09 C0                                                 	OR	EAX,EAX
                                                                	;JG	short _lib_225
                                                                	;JMP	short _lib_224
                                                                	;JNG	short _lib_224
00000D96: 7C 24                                                 	JL	short _lib_228	; else if(sz<0)
00000D98: 74 0F                                                 	JE	short _lib_227
                                                                _lib_225:
00000D9A: 8D 55 0C                                              	LEA	EDX,[EBP+12]	; str[--sz]=0;
00000D9D: 8B 0A                                                 	MOV	ECX,[EDX]
                                                                	;LEA	EBX,[EBP+8]
                                                                	;MOV	EAX,[EBX]
00000D9F: 48                                                    	DEC	EAX
00000DA0: 89 03                                                 	MOV	[EBX],EAX
00000DA2: 01 C1                                                 	ADD	ECX,EAX
                                                                	;XOR	EAX,EAX
                                                                	;MOV	[ECX],AL
00000DA4: C6 01 00                                              	MOV	BYTE [ECX],0
00000DA7: EB 19                                                 	JMP	short _lib_226
                                                                ;_lib_224:
                                                                	;;LEA	EBX,[EBP+8]
                                                                	;;MOV	EAX,[EBX]
                                                                	;OR	EAX,EAX
                                                                	;JL	short _lib_228
                                                                	;;JMP	short _lib_227
                                                                _lib_227:			; else
                                                                _lib_230:			; while(str[sz]!=0)
00000DA9: 8D 55 0C                                              	LEA	EDX,[EBP+12]
00000DAC: 8B 0A                                                 	MOV	ECX,[EDX]	; str[0]
                                                                	;LEA	EBX,[EBP+8]
                                                                	;MOV	EAX,[EBX]
00000DAE: 01 C1                                                 	ADD	ECX,EAX
00000DB0: 0F BE 11                                              	MOVSX	EDX,BYTE [ECX]	; str[sz]
00000DB3: 09 D2                                                 	OR	EDX,EDX
00000DB5: 74 0B                                                 	JE	short _lib_231
                                                                _lib_232:
                                                                	;LEA	EBX,[EBP+8]	; ++sz;
                                                                	;MOV	EAX,[EBX]
00000DB7: 40                                                    	INC	EAX
00000DB8: 89 03                                                 	MOV	[EBX],EAX
00000DBA: EB ED                                                 	JMP	short _lib_230
                                                                _lib_228:
                                                                	;LEA	EAX,[EBP+8]	; sz=-sz;
                                                                	;MOV	EAX,[EBX]
00000DBC: F7 D8                                                 	NEG	EAX
00000DBE: 89 03                                                 	MOV	[EBX],EAX
                                                                	;JMP	short _lib_229
00000DC0: EB 04                                                 	JMP	short _lib_235	; eax > 0
                                                                _lib_231:
                                                                _lib_229:
                                                                _lib_226:
                                                                _lib_233:
                                                                _lib_239:			; while(sz)
                                                                	;LEA	EBX,[EBP+8]
                                                                	;MOV	EAX,[EBX]
00000DC2: 09 C0                                                 	OR	EAX,EAX
00000DC4: 74 5A                                                 	JE	short _lib_234
                                                                _lib_235:
00000DC6: 8D 55 10                                              	LEA	EDX,[EBP+16]	; {digit=nbr&15;
00000DC9: 8B 02                                                 	MOV	EAX,[EDX]
00000DCB: 83 E0 0F                                              	AND	EAX,15
00000DCE: 8D 5D FC                                              	LEA	EBX,[EBP-4]	; digit
00000DD1: 89 03                                                 	MOV	[EBX],EAX
                                                                	;LEA	EDX,[EBP+16]	; nbr=nbr/16;
00000DD3: 8B 02                                                 	MOV	EAX,[EDX]
00000DD5: B9 10 00 00 00                                        	MOV	ECX,16
00000DDA: 99                                                    	CDQ
00000DDB: F7 F9                                                 	IDIV	ECX
00000DDD: 89 02                                                 	MOV	[EDX],EAX	; nbr
00000DDF: 8D 45 FC                                              	LEA	EAX,[EBP-4]	; if(digit<10)
00000DE2: 8B 18                                                 	MOV	EBX,[EAX]
00000DE4: B8 0A 00 00 00                                        	MOV	EAX,10
00000DE9: E8 4B F2 FF FF                                        	CALL	__lt
00000DEE: 8D 5D F8                                              	LEA	EBX,[EBP-8] ; * ; offset
00000DF1: 09 C0                                                 	OR	EAX,EAX
00000DF3: 74 04                                                 	JZ	short _lib_236	; else
                                                                _lib_237:
                                                                	;LEA	EBX,[EBP-8] ; *	; offset=48;
                                                                	;MOV	EAX,48
00000DF5: B0 30                                                 	MOV	AL,48
                                                                	;MOV	[EBX],EAX
                                                                	;MOV	[EBX],48
00000DF7: EB 02                                                 	JMP	short _lib_238
                                                                _lib_236:
                                                                	;LEA	EBX,[EBP-8] ; *
                                                                	;MOV	EAX,55
00000DF9: B0 37                                                 	MOV	AL,55
                                                                _lib_238:
00000DFB: 89 03                                                 	MOV	[EBX],EAX
                                                                ;_lib_238:		; str[--sz]=digit+offset;
00000DFD: 53                                                    	PUSH	EBX ; *
00000DFE: 8D 55 0C                                              	LEA	EDX,[EBP+12]	; str
00000E01: 8B 0A                                                 	MOV	ECX,[EDX]	; [str[0]
00000E03: 8D 5D 08                                              	LEA	EBX,[EBP+8]
00000E06: 8B 03                                                 	MOV	EAX,[EBX]
00000E08: 48                                                    	DEC	EAX		; --sz
00000E09: 89 03                                                 	MOV	[EBX],EAX
00000E0B: 01 C1                                                 	ADD	ECX,EAX		; str[sz]
00000E0D: 8D 5D FC                                              	LEA	EBX,[EBP-4]	; digit+offset;
00000E10: 8B 03                                                 	MOV	EAX,[EBX]
                                                                	;LEA	EBX,[EBP-8] ; *
00000E12: 5B                                                    	POP	EBX ; *
00000E13: 03 03                                                 	ADD	EAX,[EBX]	; + offset
00000E15: 88 01                                                 	MOV	[ECX],AL
00000E17: 8D 5D 10                                              	LEA	EBX,[EBP+16]
00000E1A: 8B 03                                                 	MOV	EAX,[EBX]
00000E1C: 09 C0                                                 	OR	EAX,EAX
00000E1E: 75 A2                                                 	JNE	short _lib_239
                                                                _lib_240:
                                                                _lib_234:
                                                                ;_lib_241:
00000E20: 8D 5D 08                                              	LEA	EBX,[EBP+8]	; while(sz)
00000E23: 8B 03                                                 	MOV	EAX,[EBX]
                                                                _lib_241:
00000E25: 09 C0                                                 	OR	EAX,EAX
                                                                	;JZ	short _lib_242
00000E27: 75 06                                                 	JNZ	short _lib_243
                                                                _lib_242:
                                                                	;LEA	EDX,[EBP+12]	; return str;
00000E29: 8B 02                                                 	MOV	EAX,[EDX]
00000E2B: 89 EC                                                 	MOV	ESP,EBP
00000E2D: 5D                                                    	POP	EBP
00000E2E: C3                                                    	RETN
                                                                _lib_243:
                                                                	;LEA	EDX,[EBP+12]	; str[--sz]=' ';
00000E2F: 8B 0A                                                 	MOV	ECX,[EDX]
                                                                	;LEA	EBX,[EBP+8]
                                                                	;MOV	EAX,[EBX]
00000E31: 48                                                    	DEC	EAX
00000E32: 89 03                                                 	MOV	[EBX],EAX
00000E34: 01 C1                                                 	ADD	ECX,EAX
                                                                	;MOV	EAX,32
                                                                	;MOV	[EBX],AL
00000E36: C6 01 20                                              	MOV	BYTE [ECX],32	; space
00000E39: EB EA                                                 	JMP	short _lib_241
                                                                
                                                                ;__iob:
                                                                ;times 3*32 db 0x0
                                                                
                                                                
                                                                  ; MenuetOS implement
                                                                  include "OSFUNC.ASM"
                                                                ; -----------------------------------------------------------
                                                                ; Small C Compiler for TRDOS 386 (v2.0.9 and later)
                                                                ; Erdogan Tan - 2024
                                                                ; Beginning: 05/09/2024
                                                                ; Last Update: 21/03/2026
                                                                ; -----------------------------------------------------------
                                                                ; Derived from 'osfunc.asm' file of KolibriOS SCC source code
                                                                ; 2024
                                                                
                                                                ; 20/08/2024 ; TRDOS 386 v2.0.9
                                                                ; 29/04/2016
                                                                _ver 	equ 0
                                                                _exit 	equ 1
                                                                _fork 	equ 2
                                                                _read 	equ 3
                                                                _write	equ 4
                                                                _open	equ 5
                                                                _close 	equ 6
                                                                _wait 	equ 7
                                                                _creat 	equ 8
                                                                _link 	equ 9
                                                                _unlink	equ 10
                                                                _exec	equ 11
                                                                _chdir	equ 12
                                                                _time 	equ 13
                                                                _mkdir 	equ 14
                                                                _chmod	equ 15
                                                                _chown	equ 16
                                                                _break	equ 17
                                                                _stat	equ 18
                                                                _seek	equ 19
                                                                _tell 	equ 20
                                                                _mount	equ 21
                                                                _umount	equ 22
                                                                _setuid	equ 23
                                                                _getuid	equ 24
                                                                _stime	equ 25
                                                                _quit	equ 26
                                                                _intr	equ 27
                                                                _fstat	equ 28
                                                                _emt 	equ 29
                                                                _mdate 	equ 30
                                                                _video 	equ 31
                                                                _audio	equ 32
                                                                _timer	equ 33
                                                                _sleep	equ 34
                                                                _msg    equ 35
                                                                _geterr	equ 36
                                                                _fpsave	equ 37
                                                                _pri	equ 38
                                                                _rele	equ 39
                                                                _fff	equ 40
                                                                _fnf	equ 41
                                                                _alloc	equ 42
                                                                _dalloc equ 43
                                                                _calbac equ 44
                                                                _dma	equ 45
                                                                _stdio  equ 46
                                                                
                                                                    ; 12/09/2024 ('sys' macro in FASM format)
                                                                
                                                                macro sys op1,op2,op3,op4
                                                                {
                                                                    if	op4 eq
                                                                    else
                                                                	mov edx,op4
                                                                    end	if
                                                                    if	op3 eq
                                                                    else
                                                                	mov ecx,op3
                                                                    end	if
                                                                    if	op2 eq
                                                                    else
                                                                 	mov ebx,op2
                                                                    end	if
                                                                    	mov eax,op1
                                                                    	int 40h
                                                                }
                                                                
                                                                ; -----------------------------
                                                                
                                                                _OS_callo equ _OS_calloc
                                                                _OS_fclos equ _OS_fclose
                                                                
                                                                ; -----------------------------
                                                                
                                                                ;
                                                                ; OS function implementation
                                                                ; SmallC for KolibriOS
                                                                ;
                                                                
                                                                init_osfunc:
                                                                	; 05/09/2024 - TRDOS 386 v2.0.9
                                                                	; nothing to do for now
00000E3B: C3                                                    	retn
                                                                
                                                                ;Main OS functions
                                                                
                                                                _OS_fopen:
                                                                	;Implement "fopen"
                                                                	;esp+4 - mode
                                                                	;esp+8 - file name
                                                                
00000E3C: 8B 44 24 04                                           	mov	eax,[esp+4] ; file open mode
00000E40: 8B 5C 24 08                                           	mov	ebx,[esp+8] ; file name
                                                                
00000E44: 31 C9                                                 	xor	ecx,ecx ; 0 ; open for read
00000E46: 80 38 72                                              	cmp	byte [eax],'r'
00000E49: 74 08                                                 	je	short open_read
                                                                	;inc	ecx ; 1 ; open for write
00000E4B: 80 38 77                                              	cmp	byte [eax],'w'
00000E4E: 74 0E                                                 	je	short open_write
                                                                	;bad mode
                                                                file_notfound:
                                                                access_error:
00000E50: 31 C0                                                 	xor	eax,eax ; 0 ; invalid open mode
00000E52: C3                                                    	retn
                                                                
                                                                open_read:
                                                                ;Open for read
                                                                	;xor	ecx,ecx ; 0 ; open for read
00000E53: B8 05 00 00 00 CD 40                                  	sys	_open
00000E5A: 72 F4                                                 	jc	short file_notfound ; return 0
                                                                	; 15/03/2026
                                                                	; eax = file handle
00000E5C: 40                                                    	inc	eax ; file handle (1 based)
00000E5D: C3                                                    	retn
                                                                	
                                                                open_write:
                                                                ;Open for write
                                                                open_create:
                                                                	; ecx = 0 -> ordinary file
                                                                	; ebx = file name
00000E5E: B8 08 00 00 00 CD 40                                  	sys	_creat
00000E65: 72 E9                                                 	jc	short access_error ; create_err
                                                                
                                                                open_create_ok:
                                                                	; eax = file handle
00000E67: 40                                                    	inc	eax ; file handle (1 based)
                                                                .close_ok:
                                                                close_ok: ; 12/09/2024
00000E68: C3                                                    	retn
                                                                
                                                                _OS_fclose:
                                                                ;Close file
                                                                	;esp+4 - file handle
                                                                
00000E69: 8B 5C 24 04                                           	mov	ebx,[esp+4] ; file handle (1 based)
00000E6D: 4B                                                    	dec	ebx ; 0 based
                                                                
00000E6E: B8 06 00 00 00 CD 40                                  	sys	_close
00000E75: 73 F1                                                 	jnc	short close_ok ; eax = 0
                                                                
                                                                .close_err:
                                                                read_err:  ; 12/09/2024
00000E77: B8 FF FF FF FF                                        	mov	eax,-1 ; BAD
00000E7C: C3                                                    	retn
                                                                
                                                                _OS_fgetc:
                                                                	;Load char from file
                                                                	;esp+4 - input file
                                                                
00000E7D: 8B 44 24 04                                           	mov	eax,[esp+4] ; file handle, 1 based
                                                                	; -1 -> STDIN
00000E81: 40                                                    	inc	eax ; -1 -> 0
00000E82: 74 2A                                                 	jz	short _OS_getc ; 16/09/2024
                                                                
00000E84: 48                                                    	dec	eax ; 1 based
00000E85: 48                                                    	dec	eax ; 0 based file handle
                                                                
00000E86: C6 05 BB 0E 00 00 00                                  	mov	byte [character],0
                                                                
00000E8D: BA 01 00 00 00 B9 BB 0E 00 00 89 C3 B8 03 00 00       	sys	_read, eax, character, 1
          00 CD 40                                              
00000EA0: 72 D5                                                 	jc	short read_err
                                                                
00000EA2: 21 C0                                                 	and	eax,eax
00000EA4: 75 02                                                 	jnz	short _OS_fgetc_ok
00000EA6: 48                                                    	dec	eax
                                                                	; eax = -1 ; EOF
00000EA7: C3                                                    	retn
                                                                
                                                                _OS_fgetc_ok:
00000EA8: A0 BB 0E 00 00                                        	mov	al,[character]
00000EAD: C3                                                    	retn
                                                                
                                                                _OS_getc:
00000EAE: BB 00 00 00 00 B8 2E 00 00 00 CD 40                   	sys	_stdio, 0 ; read STDIN (wait keypress)
                                                                	; eax (al) = character (ascii) code
00000EBA: C3                                                    	retn
                                                                
00000EBB: 00                                                    character: db 0
                                                                
                                                                _OS_fputc:
                                                                	;Save char to file
                                                                	;esp+4 - output file
                                                                	;esp+8 - char to write
                                                                
00000EBC: 8B 4C 24 08                                           	mov	ecx,[esp+8]
00000EC0: 88 0D BB 0E 00 00                                     	mov	[character],cl
                                                                
00000EC6: 8B 44 24 04                                           	mov	eax,[esp+4] ; file handle, 1 based
                                                                	; -1 -> STDOUT/STDERR
00000ECA: 40                                                    	inc	eax ; -1 -> 0
00000ECB: 74 1A                                                 	jz	short _OS_putc_@ ; 16/09/2024
                                                                
00000ECD: 48                                                    	dec	eax ; 1 based
00000ECE: 48                                                    	dec	eax ; 0 based file handle
                                                                
00000ECF: BA 01 00 00 00 B9 BB 0E 00 00 89 C3 B8 04 00 00       	sys	_write, eax, character, 1
          00 CD 40                                              
00000EE2: C3                                                    	retn
                                                                
                                                                _OS_putc:
                                                                	;Save char to file
                                                                	;esp+4 - char to write
                                                                
00000EE3: 8B 4C 24 04                                           	mov	ecx,[esp+4]
                                                                _OS_putc_@:
                                                                	; cl = character to be written
00000EE7: BB 02 00 00 00 B8 2E 00 00 00 CD 40                   	sys	_stdio, 2 ; write to STDOUT (display char)
                                                                calloc_ok: ; 13/09/2024
00000EF3: C3                                                    	retn
                                                                
                                                                _OS_calloc:
                                                                	;Alloc memory
                                                                
                                                                	; TRDOS 386 v2 feature
                                                                	; default u.break (bss) address is file size for PRG files
                                                                
00000EF4: BB FF FF FF FF B8 11 00 00 00 CD 40                   	sys	_break, -1  ; get u.break address
00000F00: 72 1F                                                 	jc	short calloc_err
                                                                
                                                                ubreak_ready:	; temporary - 23/09/2024
                                                                	; eax = [u.break]
00000F02: 83 C0 03                                              	add	eax,3
00000F05: 24 FC                                                 	and	al,not 3 ; dword aligned allocation (malloc) address
                                                                
00000F07: 50                                                    	push	eax ; *
00000F08: 8B 44 24 08                                           	mov	eax,[esp+8] ; element size (integer=4)
00000F0C: 8B 5C 24 0C                                           	mov	ebx,[esp+12] ; structure/area length (element count)
00000F10: F7 E3                                                 	mul	ebx
00000F12: 03 04 24                                              	add	eax,[esp] ; *
                                                                
                                                                	; new break point - old break point = allocation size
                                                                
                                                                	; temporary - 23/09/2024
                                                                	;mov	[ubreak],eax
                                                                	;;;
                                                                	; temporary - 23/09/2024
                                                                	;xor	eax,eax
                                                                	;rep	stosb
                                                                	;;;
                                                                	;pop	eax ; *
                                                                	;retn
                                                                
00000F15: 89 C3 B8 11 00 00 00 CD 40                            	sys	_break, eax ; set new u.break address
00000F1E: 58                                                    	pop	eax ; * ; 13/09/2024
                                                                	;jc	short .calloc_err
                                                                
                                                                	; return value
                                                                	; eax = start/beginning address
                                                                	;retn
                                                                	; 13/09/2024
00000F1F: 73 D2                                                 	jnc	short calloc_ok
                                                                
                                                                calloc_err:
                                                                	; write "malloc error" message to STDERR
00000F21: BE 48 0F 00 00                                        	mov	esi,.malloc_err_msg
                                                                .calloc_err_p:
00000F26: AC                                                    	lodsb
00000F27: 08 C0                                                 	or	al,al
00000F29: 74 10                                                 	jz	short .calloc_err_x
00000F2B: 89 C1 BB 03 00 00 00 B8 2E 00 00 00 CD 40             	sys	_stdio, 3, eax
00000F39: EB EB                                                 	jmp	short .calloc_err_p
                                                                
                                                                .calloc_err_x:
00000F3B: BB FF FF FF FF B8 01 00 00 00 CD 40                   	sys	_exit, -1
00000F47: C3                                                    	retn	; normally cpu must not come here !
                                                                
                                                                .malloc_err_msg:
00000F48: 0D 0A                                                   db 0Dh,0Ah
00000F4A: 07                                                      db 07h  ; beep !
00000F4B: 4D 65 6D 6F 72 79 20 41 6C 6C 6F 63 61 74 69 6F         db "Memory Allocation Error!"
          6E 20 45 72 72 6F 72 21                               
00000F63: 0D 0A 00                                                db 0Dh,0Ah,0
                                                                
                                                                _OS_exit:
00000F66: 8B 5C 24 04                                           	mov	ebx,[esp+4]  ; exit code ; 13/09/2024
00000F6A: B8 01 00 00 00 CD 40                                  	sys	_exit
00000F71: C3                                                    	retn	; normally cpu must not come here !
                                                                
                                                                
                                                                _fopen	equ _OS_fopen
                                                                _fputc	equ _OS_fputc
                                                                _fgetc	equ _OS_fgetc
                                                                _fclose equ _OS_fclos
                                                                
                                                                  ; Main program (compiled from C)
                                                                  include "GETARG.ASM"
                                                                ; -----------------------------------------------------------
                                                                ; Small C Compiler for TRDOS 386 (v2.0.9 and later)
                                                                ; Erdogan Tan - 2024
                                                                ; Beginning: 05/09/2024
                                                                ; Last Update: 14/09/2024
                                                                ; -----------------------------------------------------------
                                                                ; Derived from 'getarg.asm' file of KolibriOS SCC source code
                                                                ; 2024
                                                                
                                                                ; Get command line argument. 
                                                                ; Entry: n    = Number of the arguments.
                                                                ;        s    = Destination string pointer.
                                                                ;        size = Size of destination string.
                                                                ;        argc = Argument count from main().
                                                                ;        argv = Argument vector(s) from main().
                                                                ; Returns number of characters moved on success,
                                                                ; else EOF.
                                                                
                                                                _getarg:	; int n; char *s; int size,argc,argv[];
00000F72: 55                                                    	PUSH	EBP
00000F73: 89 E5                                                 	MOV	EBP,ESP
00000F75: 83 C4 F8                                              	ADD	ESP,-8  ; char *str; int i;
00000F78: 8D 45 18                                              	LEA	EAX,[EBP+24] ; n
00000F7B: 8B 18                                                 	MOV	EBX,[EAX] ; if(n<0 | n>=argc)
00000F7D: 31 C0                                                 	XOR	EAX,EAX	  ; 0
00000F7F: E8 B5 F0 FF FF                                        	CALL	__lt	; if(n<0
00000F84: 50                                                    	PUSH	EAX	; 0 (false) or 1 (true)
                                                                	;LEA	EBX,[EBP+24]
                                                                	;MOV	EAX,[EBX]
                                                                	;PUSH	EAX
00000F85: 53                                                    	PUSH	EBX	; n
00000F86: 8D 5D 0C                                              	LEA	EBX,[EBP+12] ; argc
00000F89: 8B 03                                                 	MOV	EAX,[EBX]
00000F8B: 5B                                                    	POP	EBX
00000F8C: E8 BD F0 FF FF                                        	CALL	__ge	; | n>=argc)
00000F91: 5B                                                    	POP	EBX
00000F92: 09 D8                                                 	OR	EAX,EBX	; (condition 1 or condition 2)
                                                                	;OR	EAX,EAX
                                                                	;JNZ	short _0_3
00000F94: 74 12                                                 	JZ	short _0_2 ; }
                                                                _0_3:		; {*s=NULL;
00000F96: 8D 45 14                                              	LEA	EAX,[EBP+20] ; pointer to *s address
00000F99: 8B 18                                                 	MOV	EBX,[EAX]  ; (ebx = address of *s)
00000F9B: 31 C0                                                 	XOR	EAX,EAX	; NULL
00000F9D: 88 03                                                 	MOV	[EBX],AL ; *s=NULL;  ; ([ebx] = s value)
00000F9F: B8 FF FF FF FF                                        	MOV	EAX,-1	; return EOF;
00000FA4: 89 EC                                                 	MOV	ESP,EBP
00000FA6: 5D                                                    	POP	EBP
00000FA7: C3                                                    	RETN
                                                                _0_2:		; }
00000FA8: 8D 5D F8                                              	LEA	EBX,[EBP-8]
                                                                	;XOR	EAX,EAX
                                                                	; eax = 0
00000FAB: 89 03                                                 	MOV	[EBX],EAX ; i=0;
00000FAD: 8D 45 FC                                              	LEA	EAX,[EBP-4]
00000FB0: 50                                                    	PUSH	EAX	; str
00000FB1: 8D 5D 08                                              	LEA	EBX,[EBP+8] ; pointer to argv[]
00000FB4: 8B 03                                                 	MOV	EAX,[EBX]
00000FB6: 50                                                    	PUSH	EAX	; argv[] (address)
00000FB7: 8D 5D 18                                              	LEA	EBX,[EBP+24] ; n
00000FBA: 8B 03                                                 	MOV	EAX,[EBX]
00000FBC: 5B                                                    	POP	EBX
00000FBD: D1 E0                                                 	SHL	EAX,1
00000FBF: D1 E0                                                 	SHL	EAX,1	; n*4
00000FC1: 01 C3                                                 	ADD	EBX,EAX	; argv[0]+4*n
00000FC3: 8B 03                                                 	MOV	EAX,[EBX]	; argv[n]
00000FC5: 5B                                                    	POP	EBX		; str (address)
00000FC6: 89 03                                                 	MOV	[EBX],EAX	; str = argv[n]
                                                                _0_4:		; while(i<size)
00000FC8: 8D 5D F8                                              	LEA	EBX,[EBP-8]
00000FCB: 8B 03                                                 	MOV	EAX,[EBX]
00000FCD: 50                                                    	PUSH	EAX	; i
00000FCE: 8D 5D 10                                              	LEA	EBX,[EBP+16] ; pointer to size
00000FD1: 8B 03                                                 	MOV	EAX,[EBX]
00000FD3: 5B                                                    	POP	EBX
00000FD4: E8 60 F0 FF FF                                        	CALL	__lt	; is i<size ?
00000FD9: 09 C0                                                 	OR	EAX,EAX
00000FDB: 74 2E                                                 	JZ	short _0_5 ; false, jump to s[i]=NULL;
                                                                _0_6:		; true, if((s[i]=str[i])==NULL) break;
00000FDD: 8D 5D 14                                              	LEA	EBX,[EBP+20]
00000FE0: 8B 03                                                 	MOV	EAX,[EBX]
00000FE2: 50                                                    	PUSH	EAX	; s (address)
00000FE3: 8D 5D F8                                              	LEA	EBX,[EBP-8]
00000FE6: 8B 03                                                 	MOV	EAX,[EBX] ; i (value)
00000FE8: 5B                                                    	POP	EBX
00000FE9: 01 D8                                                 	ADD	EAX,EBX	; (i offset from start of s)
00000FEB: 50                                                    	PUSH	EAX	; s[i]
00000FEC: 8D 5D FC                                              	LEA	EBX,[EBP-4] ; pointer to of *str address
00000FEF: 8B 03                                                 	MOV	EAX,[EBX]   ; str
00000FF1: 50                                                    	PUSH	EAX
00000FF2: 8D 5D F8                                              	LEA	EBX,[EBP-8]
00000FF5: 8B 03                                                 	MOV	EAX,[EBX]
00000FF7: 5B                                                    	POP	EBX	; str (address)
00000FF8: 01 C3                                                 	ADD	EBX,EAX	; (i offset from start of str)
00000FFA: 0F BE 03                                              	MOVSX	EAX,BYTE [EBX] ; char str[i]
00000FFD: 5B                                                    	POP	EBX	; s[i]
00000FFE: 88 03                                                 	MOV	[EBX],AL ; s[i] = str[i]
00001000: 09 C0                                                 	OR	EAX,EAX	; if((s[i]=str[i])==NULL
00001002: 74 07                                                 	JZ	short _0_5 ; break;
                                                                _0_7:		; else, ++i;
00001004: 8D 5D F8                                              	LEA	EBX,[EBP-8]
                                                                	;MOV	EAX,[EBX]
                                                                	;INC	EAX
                                                                	;MOV	[EBX],EAX
00001007: FF 03                                                 	INC	DWORD [EBX] ; ++i
00001009: EB BD                                                 	JMP	short _0_4  ; jump to while(i<size)
                                                                _0_5:
0000100B: 8D 5D 14                                              	LEA	EBX,[EBP+20]
0000100E: 8B 03                                                 	MOV	EAX,[EBX]
00001010: 50                                                    	PUSH	EAX	; s
00001011: 8D 5D F8                                              	LEA	EBX,[EBP-8] 
00001014: 8B 03                                                 	MOV	EAX,[EBX] ; i
00001016: 5B                                                    	POP	EBX
00001017: 01 C3                                                 	ADD	EBX,EAX	; start of s + i = s[i]
                                                                	;PUSH	EAX	; i
                                                                	;XOR	EAX,EAX	; NULL
                                                                	;MOV	[EBX],AL ; s[i]=NULL;
00001019: C6 03 00                                              	MOV	BYTE [EBX],0
                                                                	;;LEA	EBX,[EBP-8]
                                                                	;;MOV	EAX,[EBX]
                                                                	;POP	EAX 	; return i;
0000101C: 89 EC                                                 	MOV	ESP,EBP
0000101E: 5D                                                    	POP	EBP
0000101F: C3                                                    	RETN
                                                                
                                                                  include "HELLO.ASM"
                                                                
                                                                _main:
00001020: 55                                                    PUSH EBP
00001021: 89 E5                                                 MOV EBP,ESP
00001023: 83 C4 F0                                              ADD ESP,-16
00001026: 8D 45 FC                                              LEA EAX,[EBP-4]
00001029: 89 C3                                                 MOV EBX,EAX
0000102B: B8 FF FF FF FF                                        MOV EAX,-1
00001030: 89 03                                                 MOV [EBX],EAX
00001032: 8D 45 F8                                              LEA EAX,[EBP-8]
00001035: 89 C3                                                 MOV EBX,EAX
00001037: 31 C0                                                 XOR EAX,EAX
00001039: 89 03                                                 MOV [EBX],EAX
0000103B: 8D 45 F4                                              LEA EAX,[EBP-12]
0000103E: 89 C3                                                 MOV EBX,EAX
00001040: B8 00 00 01 00                                        MOV EAX,65536
00001045: 89 03                                                 MOV [EBX],EAX
00001047: 8D 45 F0                                              LEA EAX,[EBP-16]
0000104A: 89 C3                                                 MOV EBX,EAX
0000104C: B8 40 42 0F 00                                        MOV EAX,1000000
00001051: 89 03                                                 MOV [EBX],EAX
00001053: 8D 45 F8                                              LEA EAX,[EBP-8]
00001056: 50                                                    PUSH EAX
00001057: 8D 45 FC                                              LEA EAX,[EBP-4]
0000105A: 89 C3                                                 MOV EBX,EAX
0000105C: 8B 03                                                 MOV EAX,[EBX]
0000105E: 50                                                    PUSH EAX
0000105F: 8D 45 F4                                              LEA EAX,[EBP-12]
00001062: 89 C3                                                 MOV EBX,EAX
00001064: 8B 03                                                 MOV EAX,[EBX]
00001066: 5B                                                    POP EBX
00001067: F7 EB                                                 IMUL EBX
00001069: 5B                                                    POP EBX
0000106A: 89 03                                                 MOV [EBX],EAX
0000106C: B8 80 10 00 00                                        MOV EAX,_1+0
00001071: 50                                                    PUSH EAX
00001072: B1 01                                                 MOV CL,1
00001074: E8 A2 F3 FF FF                                        CALL _printf
00001079: 83 C4 04                                              ADD ESP,4
0000107C: 89 EC                                                 MOV ESP,EBP
0000107E: 5D                                                    POP EBP
0000107F: C3                                                    RETN
00001080: 48 65 6C 6C 6F 2C 20 57 6F 72                         _1 DB 72,101,108,108,111,44,32,87,111,114
0000108A: 6C 64 21 0A 00                                         DB 108,100,33,10,0
                                                                
                                                                ;E:.
                                                                
                                                                START:
                                                                   ; esp = argc
                                                                   ; esp+4 = argv[0] address
0000108F: 58                                                       pop  eax	; argc (value)
00001090: 89 E3                                                    mov  ebx,esp	; argv[0] address (not value)
00001092: 50                                                       push	eax	; argc
00001093: 53                                                       push	ebx
00001094: E8 87 FF FF FF                                           call _main
                                                                   ;add esp,8
00001099: 5B                                                       pop	ebx
                                                                   ;
0000109A: 31 DB                                                    xor  ebx,ebx	; exit code = 0
0000109C: B8 01 00 00 00                                           mov	eax,1	; sysexit
000010A1: CD 40                                                    int  40h
                                                                
000010A3: 00                                                      db 0	
000010A4: 53 6D 61 6C 6C 20 43 20 43 6F 6D 70 69 6C 65 72         db "Small C Compiler v1.0 for TRDOS 386"
          20 76 31 2E 30 20 66 6F 72 20 54 52 44 4F 53 20       
          33 38 36                                              
000010C7: 00                                                      db 0
000010C8: 45 72 64 6F 67 61 6E 20 54 61 6E 20 2D 20 32 30         db "Erdogan Tan - 2026"
          32 36                                                 
000010DA: 00                                                      db 0	
